

Microchip MPLAB XC8 Assembler V2.10 build 88905656 
                                                                                               Mon Aug 17 14:41:31 2020

Microchip MPLAB XC8 C Compiler v2.10 (Free license) build 20190730164152 Og1 
     1                           	processor	16F1937
     2                           	opt	pw 120
     3                           	opt	flic
     4                           	psect	nvBANK0,global,class=BANK0,space=1,delta=1
     5                           	psect	cinit,global,class=CODE,merge=1,delta=2
     6                           	psect	bssCOMMON,global,class=COMMON,space=1,delta=1
     7                           	psect	bssBANK0,global,class=BANK0,space=1,delta=1
     8                           	psect	cstackCOMMON,global,class=COMMON,space=1,delta=1
     9                           	psect	maintext,global,class=CODE,merge=1,split=1,delta=2
    10                           	psect	text1,local,class=CODE,merge=1,delta=2
    11                           	psect	text2,local,class=CODE,merge=1,delta=2
    12                           	psect	text3,local,class=CODE,merge=1,delta=2
    13                           	psect	text4,local,class=CODE,merge=1,delta=2
    14                           	psect	text5,local,class=CODE,merge=1,delta=2
    15                           	psect	text6,local,class=CODE,merge=1,delta=2
    16                           	psect	text7,local,class=CODE,merge=1,delta=2
    17                           	psect	text8,local,class=CODE,merge=1,delta=2
    18                           	psect	text9,local,class=CODE,merge=1,delta=2
    19                           	psect	intentry,global,class=CODE,delta=2
    20                           	psect	text11,local,class=CODE,merge=1,delta=2
    21                           	psect	text12,local,class=CODE,merge=1,delta=2
    22                           	psect	text13,local,class=CODE,merge=1,delta=2
    23                           	psect	text14,local,class=CODE,merge=1,delta=2
    24                           	psect	text15,local,class=CODE,merge=1,delta=2
    25                           	psect	text16,local,class=CODE,merge=1,delta=2
    26                           	psect	text17,local,class=CODE,merge=1,delta=2
    27                           	psect	text18,local,class=CODE,merge=1,delta=2
    28                           	dabs	1,0x7E,2
    29  0000                     
    30                           ; Version 2.10
    31                           ; Generated 31/07/2019 GMT
    32                           ; 
    33                           ; Copyright © 2019, Microchip Technology Inc. and its subsidiaries ("Microchip")
    34                           ; All rights reserved.
    35                           ; 
    36                           ; This software is developed by Microchip Technology Inc. and its subsidiaries ("Microch
      +                          ip").
    37                           ; 
    38                           ; Redistribution and use in source and binary forms, with or without modification, are
    39                           ; permitted provided that the following conditions are met:
    40                           ; 
    41                           ;     1. Redistributions of source code must retain the above copyright notice, this lis
      +                          t of
    42                           ;        conditions and the following disclaimer.
    43                           ; 
    44                           ;     2. Redistributions in binary form must reproduce the above copyright notice, this 
      +                          list
    45                           ;        of conditions and the following disclaimer in the documentation and/or other
    46                           ;        materials provided with the distribution.
    47                           ; 
    48                           ;     3. Microchip's name may not be used to endorse or promote products derived from th
      +                          is
    49                           ;        software without specific prior written permission.
    50                           ; 
    51                           ; THIS SOFTWARE IS PROVIDED BY MICROCHIP "AS IS" AND ANY EXPRESS OR IMPLIED WARRANTIES,
    52                           ; INCLUDING, BUT NOT LIMITED TO, THE IMPLIED WARRANTIES OF MERCHANTABILITY AND FITNESS F
      +                          OR
    53                           ; PURPOSE ARE DISCLAIMED.  IN NO EVENT SHALL MICROCHIP BE LIABLE FOR ANY DIRECT, INDIREC
      +                          T,
    54                           ; INCIDENTAL, SPECIAL, EXEMPLARY, OR CONSEQUENTIAL DAMAGES (INCLUDING BUT NOT LIMITED TO
    55                           ; PROCUREMENT OF SUBSTITUTE GOODS OR SERVICES; LOSS OF USE, DATA OR PROFITS; OR BUSINESS
    56                           ; INTERRUPTION) HOWSOEVER CAUSED AND ON ANY THEORY OF LIABILITY, WHETHER IN CONTRACT, ST
      +                          RICT
    57                           ; LIABILITY, OR TORT (INCLUDING NEGLIGENCE OR OTHERWISE) ARISING IN ANY WAY OUT OF THE U
      +                          SE OF
    58                           ; THIS SOFTWARE, EVEN IF ADVISED OF THE POSSIBILITY OF SUCH DAMAGE.
    59                           ; 
    60                           ; 
    61                           ; Code-generator required, PIC16F1937 Definitions
    62                           ; 
    63                           ; SFR Addresses
    64  0000                     	;# 
    65  0001                     	;# 
    66  0002                     	;# 
    67  0003                     	;# 
    68  0004                     	;# 
    69  0005                     	;# 
    70  0006                     	;# 
    71  0007                     	;# 
    72  0008                     	;# 
    73  0009                     	;# 
    74  000A                     	;# 
    75  000B                     	;# 
    76  000C                     	;# 
    77  000D                     	;# 
    78  000E                     	;# 
    79  000F                     	;# 
    80  0010                     	;# 
    81  0011                     	;# 
    82  0012                     	;# 
    83  0013                     	;# 
    84  0015                     	;# 
    85  0016                     	;# 
    86  0016                     	;# 
    87  0017                     	;# 
    88  0018                     	;# 
    89  0019                     	;# 
    90  001A                     	;# 
    91  001B                     	;# 
    92  001C                     	;# 
    93  001E                     	;# 
    94  001F                     	;# 
    95  008C                     	;# 
    96  008D                     	;# 
    97  008E                     	;# 
    98  008F                     	;# 
    99  0090                     	;# 
   100  0091                     	;# 
   101  0092                     	;# 
   102  0093                     	;# 
   103  0095                     	;# 
   104  0096                     	;# 
   105  0097                     	;# 
   106  0098                     	;# 
   107  0099                     	;# 
   108  009A                     	;# 
   109  009B                     	;# 
   110  009B                     	;# 
   111  009C                     	;# 
   112  009D                     	;# 
   113  009E                     	;# 
   114  010C                     	;# 
   115  010D                     	;# 
   116  010E                     	;# 
   117  010F                     	;# 
   118  0110                     	;# 
   119  0111                     	;# 
   120  0112                     	;# 
   121  0113                     	;# 
   122  0114                     	;# 
   123  0115                     	;# 
   124  0116                     	;# 
   125  0117                     	;# 
   126  0118                     	;# 
   127  0119                     	;# 
   128  011A                     	;# 
   129  011B                     	;# 
   130  011D                     	;# 
   131  018C                     	;# 
   132  018D                     	;# 
   133  018F                     	;# 
   134  0190                     	;# 
   135  0191                     	;# 
   136  0191                     	;# 
   137  0192                     	;# 
   138  0193                     	;# 
   139  0193                     	;# 
   140  0193                     	;# 
   141  0194                     	;# 
   142  0195                     	;# 
   143  0196                     	;# 
   144  0199                     	;# 
   145  019A                     	;# 
   146  019B                     	;# 
   147  019B                     	;# 
   148  019B                     	;# 
   149  019B                     	;# 
   150  019C                     	;# 
   151  019C                     	;# 
   152  019D                     	;# 
   153  019E                     	;# 
   154  019F                     	;# 
   155  020D                     	;# 
   156  0210                     	;# 
   157  0211                     	;# 
   158  0212                     	;# 
   159  0213                     	;# 
   160  0214                     	;# 
   161  0215                     	;# 
   162  0215                     	;# 
   163  0216                     	;# 
   164  0217                     	;# 
   165  0291                     	;# 
   166  0291                     	;# 
   167  0292                     	;# 
   168  0293                     	;# 
   169  0294                     	;# 
   170  0295                     	;# 
   171  0295                     	;# 
   172  0296                     	;# 
   173  0298                     	;# 
   174  0298                     	;# 
   175  0299                     	;# 
   176  029A                     	;# 
   177  029B                     	;# 
   178  029C                     	;# 
   179  029C                     	;# 
   180  029D                     	;# 
   181  029E                     	;# 
   182  029F                     	;# 
   183  0311                     	;# 
   184  0311                     	;# 
   185  0312                     	;# 
   186  0313                     	;# 
   187  0314                     	;# 
   188  0315                     	;# 
   189  0315                     	;# 
   190  0316                     	;# 
   191  0318                     	;# 
   192  0318                     	;# 
   193  0319                     	;# 
   194  031A                     	;# 
   195  031C                     	;# 
   196  031C                     	;# 
   197  031D                     	;# 
   198  031E                     	;# 
   199  0394                     	;# 
   200  0395                     	;# 
   201  0396                     	;# 
   202  0415                     	;# 
   203  0416                     	;# 
   204  0417                     	;# 
   205  041C                     	;# 
   206  041D                     	;# 
   207  041E                     	;# 
   208  0791                     	;# 
   209  0792                     	;# 
   210  0793                     	;# 
   211  0794                     	;# 
   212  0795                     	;# 
   213  0798                     	;# 
   214  0799                     	;# 
   215  079A                     	;# 
   216  07A0                     	;# 
   217  07A1                     	;# 
   218  07A2                     	;# 
   219  07A3                     	;# 
   220  07A4                     	;# 
   221  07A5                     	;# 
   222  07A6                     	;# 
   223  07A7                     	;# 
   224  07A8                     	;# 
   225  07A9                     	;# 
   226  07AA                     	;# 
   227  07AB                     	;# 
   228  0FE4                     	;# 
   229  0FE5                     	;# 
   230  0FE6                     	;# 
   231  0FE7                     	;# 
   232  0FE8                     	;# 
   233  0FE9                     	;# 
   234  0FEA                     	;# 
   235  0FEB                     	;# 
   236  0FED                     	;# 
   237  0FEE                     	;# 
   238  0FEF                     	;# 
   239  0000                     	;# 
   240  0001                     	;# 
   241  0002                     	;# 
   242  0003                     	;# 
   243  0004                     	;# 
   244  0005                     	;# 
   245  0006                     	;# 
   246  0007                     	;# 
   247  0008                     	;# 
   248  0009                     	;# 
   249  000A                     	;# 
   250  000B                     	;# 
   251  000C                     	;# 
   252  000D                     	;# 
   253  000E                     	;# 
   254  000F                     	;# 
   255  0010                     	;# 
   256  0011                     	;# 
   257  0012                     	;# 
   258  0013                     	;# 
   259  0015                     	;# 
   260  0016                     	;# 
   261  0016                     	;# 
   262  0017                     	;# 
   263  0018                     	;# 
   264  0019                     	;# 
   265  001A                     	;# 
   266  001B                     	;# 
   267  001C                     	;# 
   268  001E                     	;# 
   269  001F                     	;# 
   270  008C                     	;# 
   271  008D                     	;# 
   272  008E                     	;# 
   273  008F                     	;# 
   274  0090                     	;# 
   275  0091                     	;# 
   276  0092                     	;# 
   277  0093                     	;# 
   278  0095                     	;# 
   279  0096                     	;# 
   280  0097                     	;# 
   281  0098                     	;# 
   282  0099                     	;# 
   283  009A                     	;# 
   284  009B                     	;# 
   285  009B                     	;# 
   286  009C                     	;# 
   287  009D                     	;# 
   288  009E                     	;# 
   289  010C                     	;# 
   290  010D                     	;# 
   291  010E                     	;# 
   292  010F                     	;# 
   293  0110                     	;# 
   294  0111                     	;# 
   295  0112                     	;# 
   296  0113                     	;# 
   297  0114                     	;# 
   298  0115                     	;# 
   299  0116                     	;# 
   300  0117                     	;# 
   301  0118                     	;# 
   302  0119                     	;# 
   303  011A                     	;# 
   304  011B                     	;# 
   305  011D                     	;# 
   306  018C                     	;# 
   307  018D                     	;# 
   308  018F                     	;# 
   309  0190                     	;# 
   310  0191                     	;# 
   311  0191                     	;# 
   312  0192                     	;# 
   313  0193                     	;# 
   314  0193                     	;# 
   315  0193                     	;# 
   316  0194                     	;# 
   317  0195                     	;# 
   318  0196                     	;# 
   319  0199                     	;# 
   320  019A                     	;# 
   321  019B                     	;# 
   322  019B                     	;# 
   323  019B                     	;# 
   324  019B                     	;# 
   325  019C                     	;# 
   326  019C                     	;# 
   327  019D                     	;# 
   328  019E                     	;# 
   329  019F                     	;# 
   330  020D                     	;# 
   331  0210                     	;# 
   332  0211                     	;# 
   333  0212                     	;# 
   334  0213                     	;# 
   335  0214                     	;# 
   336  0215                     	;# 
   337  0215                     	;# 
   338  0216                     	;# 
   339  0217                     	;# 
   340  0291                     	;# 
   341  0291                     	;# 
   342  0292                     	;# 
   343  0293                     	;# 
   344  0294                     	;# 
   345  0295                     	;# 
   346  0295                     	;# 
   347  0296                     	;# 
   348  0298                     	;# 
   349  0298                     	;# 
   350  0299                     	;# 
   351  029A                     	;# 
   352  029B                     	;# 
   353  029C                     	;# 
   354  029C                     	;# 
   355  029D                     	;# 
   356  029E                     	;# 
   357  029F                     	;# 
   358  0311                     	;# 
   359  0311                     	;# 
   360  0312                     	;# 
   361  0313                     	;# 
   362  0314                     	;# 
   363  0315                     	;# 
   364  0315                     	;# 
   365  0316                     	;# 
   366  0318                     	;# 
   367  0318                     	;# 
   368  0319                     	;# 
   369  031A                     	;# 
   370  031C                     	;# 
   371  031C                     	;# 
   372  031D                     	;# 
   373  031E                     	;# 
   374  0394                     	;# 
   375  0395                     	;# 
   376  0396                     	;# 
   377  0415                     	;# 
   378  0416                     	;# 
   379  0417                     	;# 
   380  041C                     	;# 
   381  041D                     	;# 
   382  041E                     	;# 
   383  0791                     	;# 
   384  0792                     	;# 
   385  0793                     	;# 
   386  0794                     	;# 
   387  0795                     	;# 
   388  0798                     	;# 
   389  0799                     	;# 
   390  079A                     	;# 
   391  07A0                     	;# 
   392  07A1                     	;# 
   393  07A2                     	;# 
   394  07A3                     	;# 
   395  07A4                     	;# 
   396  07A5                     	;# 
   397  07A6                     	;# 
   398  07A7                     	;# 
   399  07A8                     	;# 
   400  07A9                     	;# 
   401  07AA                     	;# 
   402  07AB                     	;# 
   403  0FE4                     	;# 
   404  0FE5                     	;# 
   405  0FE6                     	;# 
   406  0FE7                     	;# 
   407  0FE8                     	;# 
   408  0FE9                     	;# 
   409  0FEA                     	;# 
   410  0FEB                     	;# 
   411  0FED                     	;# 
   412  0FEE                     	;# 
   413  0FEF                     	;# 
   414  0000                     	;# 
   415  0001                     	;# 
   416  0002                     	;# 
   417  0003                     	;# 
   418  0004                     	;# 
   419  0005                     	;# 
   420  0006                     	;# 
   421  0007                     	;# 
   422  0008                     	;# 
   423  0009                     	;# 
   424  000A                     	;# 
   425  000B                     	;# 
   426  000C                     	;# 
   427  000D                     	;# 
   428  000E                     	;# 
   429  000F                     	;# 
   430  0010                     	;# 
   431  0011                     	;# 
   432  0012                     	;# 
   433  0013                     	;# 
   434  0015                     	;# 
   435  0016                     	;# 
   436  0016                     	;# 
   437  0017                     	;# 
   438  0018                     	;# 
   439  0019                     	;# 
   440  001A                     	;# 
   441  001B                     	;# 
   442  001C                     	;# 
   443  001E                     	;# 
   444  001F                     	;# 
   445  008C                     	;# 
   446  008D                     	;# 
   447  008E                     	;# 
   448  008F                     	;# 
   449  0090                     	;# 
   450  0091                     	;# 
   451  0092                     	;# 
   452  0093                     	;# 
   453  0095                     	;# 
   454  0096                     	;# 
   455  0097                     	;# 
   456  0098                     	;# 
   457  0099                     	;# 
   458  009A                     	;# 
   459  009B                     	;# 
   460  009B                     	;# 
   461  009C                     	;# 
   462  009D                     	;# 
   463  009E                     	;# 
   464  010C                     	;# 
   465  010D                     	;# 
   466  010E                     	;# 
   467  010F                     	;# 
   468  0110                     	;# 
   469  0111                     	;# 
   470  0112                     	;# 
   471  0113                     	;# 
   472  0114                     	;# 
   473  0115                     	;# 
   474  0116                     	;# 
   475  0117                     	;# 
   476  0118                     	;# 
   477  0119                     	;# 
   478  011A                     	;# 
   479  011B                     	;# 
   480  011D                     	;# 
   481  018C                     	;# 
   482  018D                     	;# 
   483  018F                     	;# 
   484  0190                     	;# 
   485  0191                     	;# 
   486  0191                     	;# 
   487  0192                     	;# 
   488  0193                     	;# 
   489  0193                     	;# 
   490  0193                     	;# 
   491  0194                     	;# 
   492  0195                     	;# 
   493  0196                     	;# 
   494  0199                     	;# 
   495  019A                     	;# 
   496  019B                     	;# 
   497  019B                     	;# 
   498  019B                     	;# 
   499  019B                     	;# 
   500  019C                     	;# 
   501  019C                     	;# 
   502  019D                     	;# 
   503  019E                     	;# 
   504  019F                     	;# 
   505  020D                     	;# 
   506  0210                     	;# 
   507  0211                     	;# 
   508  0212                     	;# 
   509  0213                     	;# 
   510  0214                     	;# 
   511  0215                     	;# 
   512  0215                     	;# 
   513  0216                     	;# 
   514  0217                     	;# 
   515  0291                     	;# 
   516  0291                     	;# 
   517  0292                     	;# 
   518  0293                     	;# 
   519  0294                     	;# 
   520  0295                     	;# 
   521  0295                     	;# 
   522  0296                     	;# 
   523  0298                     	;# 
   524  0298                     	;# 
   525  0299                     	;# 
   526  029A                     	;# 
   527  029B                     	;# 
   528  029C                     	;# 
   529  029C                     	;# 
   530  029D                     	;# 
   531  029E                     	;# 
   532  029F                     	;# 
   533  0311                     	;# 
   534  0311                     	;# 
   535  0312                     	;# 
   536  0313                     	;# 
   537  0314                     	;# 
   538  0315                     	;# 
   539  0315                     	;# 
   540  0316                     	;# 
   541  0318                     	;# 
   542  0318                     	;# 
   543  0319                     	;# 
   544  031A                     	;# 
   545  031C                     	;# 
   546  031C                     	;# 
   547  031D                     	;# 
   548  031E                     	;# 
   549  0394                     	;# 
   550  0395                     	;# 
   551  0396                     	;# 
   552  0415                     	;# 
   553  0416                     	;# 
   554  0417                     	;# 
   555  041C                     	;# 
   556  041D                     	;# 
   557  041E                     	;# 
   558  0791                     	;# 
   559  0792                     	;# 
   560  0793                     	;# 
   561  0794                     	;# 
   562  0795                     	;# 
   563  0798                     	;# 
   564  0799                     	;# 
   565  079A                     	;# 
   566  07A0                     	;# 
   567  07A1                     	;# 
   568  07A2                     	;# 
   569  07A3                     	;# 
   570  07A4                     	;# 
   571  07A5                     	;# 
   572  07A6                     	;# 
   573  07A7                     	;# 
   574  07A8                     	;# 
   575  07A9                     	;# 
   576  07AA                     	;# 
   577  07AB                     	;# 
   578  0FE4                     	;# 
   579  0FE5                     	;# 
   580  0FE6                     	;# 
   581  0FE7                     	;# 
   582  0FE8                     	;# 
   583  0FE9                     	;# 
   584  0FEA                     	;# 
   585  0FEB                     	;# 
   586  0FED                     	;# 
   587  0FEE                     	;# 
   588  0FEF                     	;# 
   589  0000                     	;# 
   590  0001                     	;# 
   591  0002                     	;# 
   592  0003                     	;# 
   593  0004                     	;# 
   594  0005                     	;# 
   595  0006                     	;# 
   596  0007                     	;# 
   597  0008                     	;# 
   598  0009                     	;# 
   599  000A                     	;# 
   600  000B                     	;# 
   601  000C                     	;# 
   602  000D                     	;# 
   603  000E                     	;# 
   604  000F                     	;# 
   605  0010                     	;# 
   606  0011                     	;# 
   607  0012                     	;# 
   608  0013                     	;# 
   609  0015                     	;# 
   610  0016                     	;# 
   611  0016                     	;# 
   612  0017                     	;# 
   613  0018                     	;# 
   614  0019                     	;# 
   615  001A                     	;# 
   616  001B                     	;# 
   617  001C                     	;# 
   618  001E                     	;# 
   619  001F                     	;# 
   620  008C                     	;# 
   621  008D                     	;# 
   622  008E                     	;# 
   623  008F                     	;# 
   624  0090                     	;# 
   625  0091                     	;# 
   626  0092                     	;# 
   627  0093                     	;# 
   628  0095                     	;# 
   629  0096                     	;# 
   630  0097                     	;# 
   631  0098                     	;# 
   632  0099                     	;# 
   633  009A                     	;# 
   634  009B                     	;# 
   635  009B                     	;# 
   636  009C                     	;# 
   637  009D                     	;# 
   638  009E                     	;# 
   639  010C                     	;# 
   640  010D                     	;# 
   641  010E                     	;# 
   642  010F                     	;# 
   643  0110                     	;# 
   644  0111                     	;# 
   645  0112                     	;# 
   646  0113                     	;# 
   647  0114                     	;# 
   648  0115                     	;# 
   649  0116                     	;# 
   650  0117                     	;# 
   651  0118                     	;# 
   652  0119                     	;# 
   653  011A                     	;# 
   654  011B                     	;# 
   655  011D                     	;# 
   656  018C                     	;# 
   657  018D                     	;# 
   658  018F                     	;# 
   659  0190                     	;# 
   660  0191                     	;# 
   661  0191                     	;# 
   662  0192                     	;# 
   663  0193                     	;# 
   664  0193                     	;# 
   665  0193                     	;# 
   666  0194                     	;# 
   667  0195                     	;# 
   668  0196                     	;# 
   669  0199                     	;# 
   670  019A                     	;# 
   671  019B                     	;# 
   672  019B                     	;# 
   673  019B                     	;# 
   674  019B                     	;# 
   675  019C                     	;# 
   676  019C                     	;# 
   677  019D                     	;# 
   678  019E                     	;# 
   679  019F                     	;# 
   680  020D                     	;# 
   681  0210                     	;# 
   682  0211                     	;# 
   683  0212                     	;# 
   684  0213                     	;# 
   685  0214                     	;# 
   686  0215                     	;# 
   687  0215                     	;# 
   688  0216                     	;# 
   689  0217                     	;# 
   690  0291                     	;# 
   691  0291                     	;# 
   692  0292                     	;# 
   693  0293                     	;# 
   694  0294                     	;# 
   695  0295                     	;# 
   696  0295                     	;# 
   697  0296                     	;# 
   698  0298                     	;# 
   699  0298                     	;# 
   700  0299                     	;# 
   701  029A                     	;# 
   702  029B                     	;# 
   703  029C                     	;# 
   704  029C                     	;# 
   705  029D                     	;# 
   706  029E                     	;# 
   707  029F                     	;# 
   708  0311                     	;# 
   709  0311                     	;# 
   710  0312                     	;# 
   711  0313                     	;# 
   712  0314                     	;# 
   713  0315                     	;# 
   714  0315                     	;# 
   715  0316                     	;# 
   716  0318                     	;# 
   717  0318                     	;# 
   718  0319                     	;# 
   719  031A                     	;# 
   720  031C                     	;# 
   721  031C                     	;# 
   722  031D                     	;# 
   723  031E                     	;# 
   724  0394                     	;# 
   725  0395                     	;# 
   726  0396                     	;# 
   727  0415                     	;# 
   728  0416                     	;# 
   729  0417                     	;# 
   730  041C                     	;# 
   731  041D                     	;# 
   732  041E                     	;# 
   733  0791                     	;# 
   734  0792                     	;# 
   735  0793                     	;# 
   736  0794                     	;# 
   737  0795                     	;# 
   738  0798                     	;# 
   739  0799                     	;# 
   740  079A                     	;# 
   741  07A0                     	;# 
   742  07A1                     	;# 
   743  07A2                     	;# 
   744  07A3                     	;# 
   745  07A4                     	;# 
   746  07A5                     	;# 
   747  07A6                     	;# 
   748  07A7                     	;# 
   749  07A8                     	;# 
   750  07A9                     	;# 
   751  07AA                     	;# 
   752  07AB                     	;# 
   753  0FE4                     	;# 
   754  0FE5                     	;# 
   755  0FE6                     	;# 
   756  0FE7                     	;# 
   757  0FE8                     	;# 
   758  0FE9                     	;# 
   759  0FEA                     	;# 
   760  0FEB                     	;# 
   761  0FED                     	;# 
   762  0FEE                     	;# 
   763  0FEF                     	;# 
   764  0000                     	;# 
   765  0001                     	;# 
   766  0002                     	;# 
   767  0003                     	;# 
   768  0004                     	;# 
   769  0005                     	;# 
   770  0006                     	;# 
   771  0007                     	;# 
   772  0008                     	;# 
   773  0009                     	;# 
   774  000A                     	;# 
   775  000B                     	;# 
   776  000C                     	;# 
   777  000D                     	;# 
   778  000E                     	;# 
   779  000F                     	;# 
   780  0010                     	;# 
   781  0011                     	;# 
   782  0012                     	;# 
   783  0013                     	;# 
   784  0015                     	;# 
   785  0016                     	;# 
   786  0016                     	;# 
   787  0017                     	;# 
   788  0018                     	;# 
   789  0019                     	;# 
   790  001A                     	;# 
   791  001B                     	;# 
   792  001C                     	;# 
   793  001E                     	;# 
   794  001F                     	;# 
   795  008C                     	;# 
   796  008D                     	;# 
   797  008E                     	;# 
   798  008F                     	;# 
   799  0090                     	;# 
   800  0091                     	;# 
   801  0092                     	;# 
   802  0093                     	;# 
   803  0095                     	;# 
   804  0096                     	;# 
   805  0097                     	;# 
   806  0098                     	;# 
   807  0099                     	;# 
   808  009A                     	;# 
   809  009B                     	;# 
   810  009B                     	;# 
   811  009C                     	;# 
   812  009D                     	;# 
   813  009E                     	;# 
   814  010C                     	;# 
   815  010D                     	;# 
   816  010E                     	;# 
   817  010F                     	;# 
   818  0110                     	;# 
   819  0111                     	;# 
   820  0112                     	;# 
   821  0113                     	;# 
   822  0114                     	;# 
   823  0115                     	;# 
   824  0116                     	;# 
   825  0117                     	;# 
   826  0118                     	;# 
   827  0119                     	;# 
   828  011A                     	;# 
   829  011B                     	;# 
   830  011D                     	;# 
   831  018C                     	;# 
   832  018D                     	;# 
   833  018F                     	;# 
   834  0190                     	;# 
   835  0191                     	;# 
   836  0191                     	;# 
   837  0192                     	;# 
   838  0193                     	;# 
   839  0193                     	;# 
   840  0193                     	;# 
   841  0194                     	;# 
   842  0195                     	;# 
   843  0196                     	;# 
   844  0199                     	;# 
   845  019A                     	;# 
   846  019B                     	;# 
   847  019B                     	;# 
   848  019B                     	;# 
   849  019B                     	;# 
   850  019C                     	;# 
   851  019C                     	;# 
   852  019D                     	;# 
   853  019E                     	;# 
   854  019F                     	;# 
   855  020D                     	;# 
   856  0210                     	;# 
   857  0211                     	;# 
   858  0212                     	;# 
   859  0213                     	;# 
   860  0214                     	;# 
   861  0215                     	;# 
   862  0215                     	;# 
   863  0216                     	;# 
   864  0217                     	;# 
   865  0291                     	;# 
   866  0291                     	;# 
   867  0292                     	;# 
   868  0293                     	;# 
   869  0294                     	;# 
   870  0295                     	;# 
   871  0295                     	;# 
   872  0296                     	;# 
   873  0298                     	;# 
   874  0298                     	;# 
   875  0299                     	;# 
   876  029A                     	;# 
   877  029B                     	;# 
   878  029C                     	;# 
   879  029C                     	;# 
   880  029D                     	;# 
   881  029E                     	;# 
   882  029F                     	;# 
   883  0311                     	;# 
   884  0311                     	;# 
   885  0312                     	;# 
   886  0313                     	;# 
   887  0314                     	;# 
   888  0315                     	;# 
   889  0315                     	;# 
   890  0316                     	;# 
   891  0318                     	;# 
   892  0318                     	;# 
   893  0319                     	;# 
   894  031A                     	;# 
   895  031C                     	;# 
   896  031C                     	;# 
   897  031D                     	;# 
   898  031E                     	;# 
   899  0394                     	;# 
   900  0395                     	;# 
   901  0396                     	;# 
   902  0415                     	;# 
   903  0416                     	;# 
   904  0417                     	;# 
   905  041C                     	;# 
   906  041D                     	;# 
   907  041E                     	;# 
   908  0791                     	;# 
   909  0792                     	;# 
   910  0793                     	;# 
   911  0794                     	;# 
   912  0795                     	;# 
   913  0798                     	;# 
   914  0799                     	;# 
   915  079A                     	;# 
   916  07A0                     	;# 
   917  07A1                     	;# 
   918  07A2                     	;# 
   919  07A3                     	;# 
   920  07A4                     	;# 
   921  07A5                     	;# 
   922  07A6                     	;# 
   923  07A7                     	;# 
   924  07A8                     	;# 
   925  07A9                     	;# 
   926  07AA                     	;# 
   927  07AB                     	;# 
   928  0FE4                     	;# 
   929  0FE5                     	;# 
   930  0FE6                     	;# 
   931  0FE7                     	;# 
   932  0FE8                     	;# 
   933  0FE9                     	;# 
   934  0FEA                     	;# 
   935  0FEB                     	;# 
   936  0FED                     	;# 
   937  0FEE                     	;# 
   938  0FEF                     	;# 
   939  0000                     	;# 
   940  0001                     	;# 
   941  0002                     	;# 
   942  0003                     	;# 
   943  0004                     	;# 
   944  0005                     	;# 
   945  0006                     	;# 
   946  0007                     	;# 
   947  0008                     	;# 
   948  0009                     	;# 
   949  000A                     	;# 
   950  000B                     	;# 
   951  000C                     	;# 
   952  000D                     	;# 
   953  000E                     	;# 
   954  000F                     	;# 
   955  0010                     	;# 
   956  0011                     	;# 
   957  0012                     	;# 
   958  0013                     	;# 
   959  0015                     	;# 
   960  0016                     	;# 
   961  0016                     	;# 
   962  0017                     	;# 
   963  0018                     	;# 
   964  0019                     	;# 
   965  001A                     	;# 
   966  001B                     	;# 
   967  001C                     	;# 
   968  001E                     	;# 
   969  001F                     	;# 
   970  008C                     	;# 
   971  008D                     	;# 
   972  008E                     	;# 
   973  008F                     	;# 
   974  0090                     	;# 
   975  0091                     	;# 
   976  0092                     	;# 
   977  0093                     	;# 
   978  0095                     	;# 
   979  0096                     	;# 
   980  0097                     	;# 
   981  0098                     	;# 
   982  0099                     	;# 
   983  009A                     	;# 
   984  009B                     	;# 
   985  009B                     	;# 
   986  009C                     	;# 
   987  009D                     	;# 
   988  009E                     	;# 
   989  010C                     	;# 
   990  010D                     	;# 
   991  010E                     	;# 
   992  010F                     	;# 
   993  0110                     	;# 
   994  0111                     	;# 
   995  0112                     	;# 
   996  0113                     	;# 
   997  0114                     	;# 
   998  0115                     	;# 
   999  0116                     	;# 
  1000  0117                     	;# 
  1001  0118                     	;# 
  1002  0119                     	;# 
  1003  011A                     	;# 
  1004  011B                     	;# 
  1005  011D                     	;# 
  1006  018C                     	;# 
  1007  018D                     	;# 
  1008  018F                     	;# 
  1009  0190                     	;# 
  1010  0191                     	;# 
  1011  0191                     	;# 
  1012  0192                     	;# 
  1013  0193                     	;# 
  1014  0193                     	;# 
  1015  0193                     	;# 
  1016  0194                     	;# 
  1017  0195                     	;# 
  1018  0196                     	;# 
  1019  0199                     	;# 
  1020  019A                     	;# 
  1021  019B                     	;# 
  1022  019B                     	;# 
  1023  019B                     	;# 
  1024  019B                     	;# 
  1025  019C                     	;# 
  1026  019C                     	;# 
  1027  019D                     	;# 
  1028  019E                     	;# 
  1029  019F                     	;# 
  1030  020D                     	;# 
  1031  0210                     	;# 
  1032  0211                     	;# 
  1033  0212                     	;# 
  1034  0213                     	;# 
  1035  0214                     	;# 
  1036  0215                     	;# 
  1037  0215                     	;# 
  1038  0216                     	;# 
  1039  0217                     	;# 
  1040  0291                     	;# 
  1041  0291                     	;# 
  1042  0292                     	;# 
  1043  0293                     	;# 
  1044  0294                     	;# 
  1045  0295                     	;# 
  1046  0295                     	;# 
  1047  0296                     	;# 
  1048  0298                     	;# 
  1049  0298                     	;# 
  1050  0299                     	;# 
  1051  029A                     	;# 
  1052  029B                     	;# 
  1053  029C                     	;# 
  1054  029C                     	;# 
  1055  029D                     	;# 
  1056  029E                     	;# 
  1057  029F                     	;# 
  1058  0311                     	;# 
  1059  0311                     	;# 
  1060  0312                     	;# 
  1061  0313                     	;# 
  1062  0314                     	;# 
  1063  0315                     	;# 
  1064  0315                     	;# 
  1065  0316                     	;# 
  1066  0318                     	;# 
  1067  0318                     	;# 
  1068  0319                     	;# 
  1069  031A                     	;# 
  1070  031C                     	;# 
  1071  031C                     	;# 
  1072  031D                     	;# 
  1073  031E                     	;# 
  1074  0394                     	;# 
  1075  0395                     	;# 
  1076  0396                     	;# 
  1077  0415                     	;# 
  1078  0416                     	;# 
  1079  0417                     	;# 
  1080  041C                     	;# 
  1081  041D                     	;# 
  1082  041E                     	;# 
  1083  0791                     	;# 
  1084  0792                     	;# 
  1085  0793                     	;# 
  1086  0794                     	;# 
  1087  0795                     	;# 
  1088  0798                     	;# 
  1089  0799                     	;# 
  1090  079A                     	;# 
  1091  07A0                     	;# 
  1092  07A1                     	;# 
  1093  07A2                     	;# 
  1094  07A3                     	;# 
  1095  07A4                     	;# 
  1096  07A5                     	;# 
  1097  07A6                     	;# 
  1098  07A7                     	;# 
  1099  07A8                     	;# 
  1100  07A9                     	;# 
  1101  07AA                     	;# 
  1102  07AB                     	;# 
  1103  0FE4                     	;# 
  1104  0FE5                     	;# 
  1105  0FE6                     	;# 
  1106  0FE7                     	;# 
  1107  0FE8                     	;# 
  1108  0FE9                     	;# 
  1109  0FEA                     	;# 
  1110  0FEB                     	;# 
  1111  0FED                     	;# 
  1112  0FEE                     	;# 
  1113  0FEF                     	;# 
  1114  0000                     	;# 
  1115  0001                     	;# 
  1116  0002                     	;# 
  1117  0003                     	;# 
  1118  0004                     	;# 
  1119  0005                     	;# 
  1120  0006                     	;# 
  1121  0007                     	;# 
  1122  0008                     	;# 
  1123  0009                     	;# 
  1124  000A                     	;# 
  1125  000B                     	;# 
  1126  000C                     	;# 
  1127  000D                     	;# 
  1128  000E                     	;# 
  1129  000F                     	;# 
  1130  0010                     	;# 
  1131  0011                     	;# 
  1132  0012                     	;# 
  1133  0013                     	;# 
  1134  0015                     	;# 
  1135  0016                     	;# 
  1136  0016                     	;# 
  1137  0017                     	;# 
  1138  0018                     	;# 
  1139  0019                     	;# 
  1140  001A                     	;# 
  1141  001B                     	;# 
  1142  001C                     	;# 
  1143  001E                     	;# 
  1144  001F                     	;# 
  1145  008C                     	;# 
  1146  008D                     	;# 
  1147  008E                     	;# 
  1148  008F                     	;# 
  1149  0090                     	;# 
  1150  0091                     	;# 
  1151  0092                     	;# 
  1152  0093                     	;# 
  1153  0095                     	;# 
  1154  0096                     	;# 
  1155  0097                     	;# 
  1156  0098                     	;# 
  1157  0099                     	;# 
  1158  009A                     	;# 
  1159  009B                     	;# 
  1160  009B                     	;# 
  1161  009C                     	;# 
  1162  009D                     	;# 
  1163  009E                     	;# 
  1164  010C                     	;# 
  1165  010D                     	;# 
  1166  010E                     	;# 
  1167  010F                     	;# 
  1168  0110                     	;# 
  1169  0111                     	;# 
  1170  0112                     	;# 
  1171  0113                     	;# 
  1172  0114                     	;# 
  1173  0115                     	;# 
  1174  0116                     	;# 
  1175  0117                     	;# 
  1176  0118                     	;# 
  1177  0119                     	;# 
  1178  011A                     	;# 
  1179  011B                     	;# 
  1180  011D                     	;# 
  1181  018C                     	;# 
  1182  018D                     	;# 
  1183  018F                     	;# 
  1184  0190                     	;# 
  1185  0191                     	;# 
  1186  0191                     	;# 
  1187  0192                     	;# 
  1188  0193                     	;# 
  1189  0193                     	;# 
  1190  0193                     	;# 
  1191  0194                     	;# 
  1192  0195                     	;# 
  1193  0196                     	;# 
  1194  0199                     	;# 
  1195  019A                     	;# 
  1196  019B                     	;# 
  1197  019B                     	;# 
  1198  019B                     	;# 
  1199  019B                     	;# 
  1200  019C                     	;# 
  1201  019C                     	;# 
  1202  019D                     	;# 
  1203  019E                     	;# 
  1204  019F                     	;# 
  1205  020D                     	;# 
  1206  0210                     	;# 
  1207  0211                     	;# 
  1208  0212                     	;# 
  1209  0213                     	;# 
  1210  0214                     	;# 
  1211  0215                     	;# 
  1212  0215                     	;# 
  1213  0216                     	;# 
  1214  0217                     	;# 
  1215  0291                     	;# 
  1216  0291                     	;# 
  1217  0292                     	;# 
  1218  0293                     	;# 
  1219  0294                     	;# 
  1220  0295                     	;# 
  1221  0295                     	;# 
  1222  0296                     	;# 
  1223  0298                     	;# 
  1224  0298                     	;# 
  1225  0299                     	;# 
  1226  029A                     	;# 
  1227  029B                     	;# 
  1228  029C                     	;# 
  1229  029C                     	;# 
  1230  029D                     	;# 
  1231  029E                     	;# 
  1232  029F                     	;# 
  1233  0311                     	;# 
  1234  0311                     	;# 
  1235  0312                     	;# 
  1236  0313                     	;# 
  1237  0314                     	;# 
  1238  0315                     	;# 
  1239  0315                     	;# 
  1240  0316                     	;# 
  1241  0318                     	;# 
  1242  0318                     	;# 
  1243  0319                     	;# 
  1244  031A                     	;# 
  1245  031C                     	;# 
  1246  031C                     	;# 
  1247  031D                     	;# 
  1248  031E                     	;# 
  1249  0394                     	;# 
  1250  0395                     	;# 
  1251  0396                     	;# 
  1252  0415                     	;# 
  1253  0416                     	;# 
  1254  0417                     	;# 
  1255  041C                     	;# 
  1256  041D                     	;# 
  1257  041E                     	;# 
  1258  0791                     	;# 
  1259  0792                     	;# 
  1260  0793                     	;# 
  1261  0794                     	;# 
  1262  0795                     	;# 
  1263  0798                     	;# 
  1264  0799                     	;# 
  1265  079A                     	;# 
  1266  07A0                     	;# 
  1267  07A1                     	;# 
  1268  07A2                     	;# 
  1269  07A3                     	;# 
  1270  07A4                     	;# 
  1271  07A5                     	;# 
  1272  07A6                     	;# 
  1273  07A7                     	;# 
  1274  07A8                     	;# 
  1275  07A9                     	;# 
  1276  07AA                     	;# 
  1277  07AB                     	;# 
  1278  0FE4                     	;# 
  1279  0FE5                     	;# 
  1280  0FE6                     	;# 
  1281  0FE7                     	;# 
  1282  0FE8                     	;# 
  1283  0FE9                     	;# 
  1284  0FEA                     	;# 
  1285  0FEB                     	;# 
  1286  0FED                     	;# 
  1287  0FEE                     	;# 
  1288  0FEF                     	;# 
  1289                           
  1290                           	psect	nvBANK0
  1291  0020                     __pnvBANK0:	
  1292  0020                     _TMR2_InterruptHandler:	
  1293  0020                     	ds	2
  1294  0022                     _INT_InterruptHandler:	
  1295  0022                     	ds	2
  1296  001C                     _T2CONbits	set	28
  1297  001C                     _T2CON	set	28
  1298  001A                     _TMR2	set	26
  1299  001B                     _PR2	set	27
  1300  0011                     _PIR1bits	set	17
  1301  000B                     _INTCONbits	set	11
  1302  0091                     _PIE1bits	set	145
  1303  0095                     _OPTION_REGbits	set	149
  1304  008F                     _TRISD	set	143
  1305  008E                     _TRISC	set	142
  1306  008D                     _TRISB	set	141
  1307  008C                     _TRISA	set	140
  1308  0090                     _TRISE	set	144
  1309  0097                     _WDTCON	set	151
  1310  0098                     _OSCTUNE	set	152
  1311  0099                     _OSCCON	set	153
  1312  011D                     _APFCON	set	285
  1313  010E                     _LATC	set	270
  1314  010D                     _LATB	set	269
  1315  010C                     _LATA	set	268
  1316  010F                     _LATD	set	271
  1317  0110                     _LATE	set	272
  1318  0116                     _BORCON	set	278
  1319  0876                     _LATC6	set	2166
  1320  0878                     _LATD0	set	2168
  1321  0863                     _LATA3	set	2147
  1322  0875                     _LATC5	set	2165
  1323  018C                     _ANSELA	set	396
  1324  0190                     _ANSELE	set	400
  1325  018D                     _ANSELB	set	397
  1326  018F                     _ANSELD	set	399
  1327  020D                     _WPUB	set	525
  1328  0210                     _WPUE	set	528
  1329                           
  1330                           ; #config settings
  1331  0000                     
  1332                           	psect	cinit
  1333  0028                     start_initialization:	
  1334  0028                     __initialization:	
  1335                           
  1336                           ; Clear objects allocated to COMMON
  1337  0028  01F0               	clrf	__pbssCOMMON& (0+127)
  1338  0029  01F1               	clrf	(__pbssCOMMON+1)& (0+127)
  1339  002A  01F2               	clrf	(__pbssCOMMON+2)& (0+127)
  1340  002B  01F3               	clrf	(__pbssCOMMON+3)& (0+127)
  1341  002C  01F4               	clrf	(__pbssCOMMON+4)& (0+127)
  1342  002D  01F5               	clrf	(__pbssCOMMON+5)& (0+127)
  1343  002E  01F6               	clrf	(__pbssCOMMON+6)& (0+127)
  1344  002F  01F7               	clrf	(__pbssCOMMON+7)& (0+127)
  1345                           
  1346                           ; Clear objects allocated to BANK0
  1347  0030  0020               	movlb	0	; select bank0
  1348  0031  01A4               	clrf	__pbssBANK0& (0+127)
  1349  0032  01A5               	clrf	(__pbssBANK0+1)& (0+127)
  1350  0033                     end_of_initialization:	
  1351                           ;End of C runtime variable initialization code
  1352                           
  1353  0033                     __end_of__initialization:	
  1354  0033  107E               	bcf	int$flags,0	;clear compiler interrupt flag (level 1)
  1355  0034  0020               	movlb	0
  1356  0035  3180  28B0         	ljmp	_main	;jump to C main() function
  1357                           
  1358                           	psect	bssCOMMON
  1359  0070                     __pbssCOMMON:	
  1360  0070                     _cnt2:	
  1361  0070                     	ds	2
  1362  0072                     _ctr1:	
  1363  0072                     	ds	2
  1364  0074                     _cnt1:	
  1365  0074                     	ds	2
  1366  0076                     _extintf:	
  1367  0076                     	ds	2
  1368                           
  1369                           	psect	bssBANK0
  1370  0024                     __pbssBANK0:	
  1371  0024                     _ctr2:	
  1372  0024                     	ds	2
  1373                           
  1374                           	psect	cstackCOMMON
  1375  0078                     __pcstackCOMMON:	
  1376  0078                     ?_PIN_MANAGER_Initialize:	
  1377  0078                     ??_PIN_MANAGER_Initialize:	
  1378                           ; 1 bytes @ 0x0
  1379                           
  1380  0078                     ?_OSCILLATOR_Initialize:	
  1381                           ; 1 bytes @ 0x0
  1382                           
  1383  0078                     ??_OSCILLATOR_Initialize:	
  1384                           ; 1 bytes @ 0x0
  1385                           
  1386  0078                     ?_WDT_Initialize:	
  1387                           ; 1 bytes @ 0x0
  1388                           
  1389  0078                     ??_WDT_Initialize:	
  1390                           ; 1 bytes @ 0x0
  1391                           
  1392  0078                     ?_TMR2_Initialize:	
  1393                           ; 1 bytes @ 0x0
  1394                           
  1395  0078                     ?_EXT_INT_Initialize:	
  1396                           ; 1 bytes @ 0x0
  1397                           
  1398  0078                     ?_INT_CallBack:	
  1399                           ; 1 bytes @ 0x0
  1400                           
  1401  0078                     ??_INT_CallBack:	
  1402                           ; 1 bytes @ 0x0
  1403                           
  1404  0078                     ?_TMR2_StartTimer:	
  1405                           ; 1 bytes @ 0x0
  1406                           
  1407  0078                     ??_TMR2_StartTimer:	
  1408                           ; 1 bytes @ 0x0
  1409                           
  1410  0078                     ?_TMR2_ISR:	
  1411                           ; 1 bytes @ 0x0
  1412                           
  1413  0078                     ??_TMR2_ISR:	
  1414                           ; 1 bytes @ 0x0
  1415                           
  1416  0078                     ?_TMR2_SetInterruptHandler:	
  1417                           ; 1 bytes @ 0x0
  1418                           
  1419  0078                     ?_TMR2_DefaultInterruptHandler:	
  1420                           ; 1 bytes @ 0x0
  1421                           
  1422  0078                     ??_TMR2_DefaultInterruptHandler:	
  1423                           ; 1 bytes @ 0x0
  1424                           
  1425  0078                     ?_TMR2_CallBack:	
  1426                           ; 1 bytes @ 0x0
  1427                           
  1428  0078                     ??_TMR2_CallBack:	
  1429                           ; 1 bytes @ 0x0
  1430                           
  1431  0078                     ?_delay_ms:	
  1432                           ; 1 bytes @ 0x0
  1433                           
  1434  0078                     ?_SYSTEM_Initialize:	
  1435                           ; 1 bytes @ 0x0
  1436                           
  1437  0078                     ?_INT_ISR:	
  1438                           ; 1 bytes @ 0x0
  1439                           
  1440  0078                     ??_INT_ISR:	
  1441                           ; 1 bytes @ 0x0
  1442                           
  1443  0078                     ?_INT_SetInterruptHandler:	
  1444                           ; 1 bytes @ 0x0
  1445                           
  1446  0078                     ?_INT_DefaultInterruptHandler:	
  1447                           ; 1 bytes @ 0x0
  1448                           
  1449  0078                     ??_INT_DefaultInterruptHandler:	
  1450                           ; 1 bytes @ 0x0
  1451                           
  1452  0078                     ?_INTERRUPT_InterruptManager:	
  1453                           ; 1 bytes @ 0x0
  1454                           
  1455  0078                     ??_INTERRUPT_InterruptManager:	
  1456                           ; 1 bytes @ 0x0
  1457                           
  1458  0078                     ?_TMR2_StopTimer:	
  1459                           ; 1 bytes @ 0x0
  1460                           
  1461  0078                     ??_TMR2_StopTimer:	
  1462                           ; 1 bytes @ 0x0
  1463                           
  1464  0078                     ?_main:	
  1465                           ; 1 bytes @ 0x0
  1466                           
  1467  0078                     INT_SetInterruptHandler@InterruptHandler:	
  1468                           ; 1 bytes @ 0x0
  1469                           
  1470  0078                     TMR2_SetInterruptHandler@InterruptHandler:	
  1471                           ; 2 bytes @ 0x0
  1472                           
  1473  0078                     delay_ms@d:	
  1474                           ; 2 bytes @ 0x0
  1475                           
  1476                           
  1477                           ; 2 bytes @ 0x0
  1478  0078                     	ds	2
  1479  007A                     ??_TMR2_Initialize:	
  1480  007A                     ??_EXT_INT_Initialize:	
  1481                           ; 1 bytes @ 0x2
  1482                           
  1483  007A                     ??_TMR2_SetInterruptHandler:	
  1484                           ; 1 bytes @ 0x2
  1485                           
  1486  007A                     ??_delay_ms:	
  1487                           ; 1 bytes @ 0x2
  1488                           
  1489  007A                     ??_SYSTEM_Initialize:	
  1490                           ; 1 bytes @ 0x2
  1491                           
  1492  007A                     ??_INT_SetInterruptHandler:	
  1493                           ; 1 bytes @ 0x2
  1494                           
  1495                           
  1496                           ; 1 bytes @ 0x2
  1497  007A                     	ds	1
  1498  007B                     delay_ms@i:	
  1499                           
  1500                           ; 2 bytes @ 0x3
  1501  007B                     	ds	2
  1502  007D                     ??_main:	
  1503                           
  1504                           	psect	maintext
  1505  00B0                     __pmaintext:	
  1506                           ; 1 bytes @ 0x5
  1507 ;;
  1508 ;;Main: autosize = 0, tempsize = 0, incstack = 0, save=0
  1509 ;;
  1510 ;; *************** function _main *****************
  1511 ;; Defined at:
  1512 ;;		line 54 in file "main.c"
  1513 ;; Parameters:    Size  Location     Type
  1514 ;;		None
  1515 ;; Auto vars:     Size  Location     Type
  1516 ;;		None
  1517 ;; Return value:  Size  Location     Type
  1518 ;;                  1    wreg      void 
  1519 ;; Registers used:
  1520 ;;		wreg, status,2, status,0, pclath, cstack
  1521 ;; Tracked objects:
  1522 ;;		On entry : B1F/0
  1523 ;;		On exit  : 0/0
  1524 ;;		Unchanged: 0/0
  1525 ;; Data sizes:     COMMON   BANK0   BANK1   BANK2   BANK3   BANK4   BANK5   BANK6
  1526 ;;      Params:         0       0       0       0       0       0       0       0
  1527 ;;      Locals:         0       0       0       0       0       0       0       0
  1528 ;;      Temps:          0       0       0       0       0       0       0       0
  1529 ;;      Totals:         0       0       0       0       0       0       0       0
  1530 ;;Total ram usage:        0 bytes
  1531 ;; Hardware stack levels required when called:    7
  1532 ;; This function calls:
  1533 ;;		_SYSTEM_Initialize
  1534 ;;		_delay_ms
  1535 ;; This function is called by:
  1536 ;;		Startup code after reset
  1537 ;; This function uses a non-reentrant model
  1538 ;;
  1539                           
  1540                           
  1541                           ;psect for function _main
  1542  00B0                     _main:	
  1543  00B0                     l1065:	
  1544                           ;incstack = 0
  1545                           ; Regs used in _main: [wreg+status,2+status,0+pclath+cstack]
  1546                           
  1547                           
  1548                           ;main.c: 57:     SYSTEM_Initialize();
  1549  00B0  3180  20D9  3180   	fcall	_SYSTEM_Initialize
  1550  00B3                     l1067:	
  1551                           
  1552                           ;main.c: 59:     LATC5 = 0;
  1553  00B3  0022               	movlb	2	; select bank2
  1554  00B4  128E               	bcf	14,5	;volatile
  1555  00B5                     l1069:	
  1556                           
  1557                           ;main.c: 60:     LATC6 = 0;
  1558  00B5  130E               	bcf	14,6	;volatile
  1559  00B6                     l1071:	
  1560                           
  1561                           ;main.c: 61:     LATA3 = 0;
  1562  00B6  118C               	bcf	12,3	;volatile
  1563  00B7                     l1073:	
  1564                           
  1565                           ;main.c: 62:     LATD0 = 0;
  1566  00B7  100F               	bcf	15,0	;volatile
  1567  00B8                     l1075:	
  1568                           
  1569                           ;main.c: 68:     (INTCONbits.GIE = 1);
  1570  00B8  178B               	bsf	11,7	;volatile
  1571  00B9                     l1077:	
  1572                           
  1573                           ;main.c: 71:     (INTCONbits.PEIE = 1);
  1574  00B9  170B               	bsf	11,6	;volatile
  1575  00BA                     l1079:	
  1576                           
  1577                           ;main.c: 80:     {;main.c: 81:         LATC6 = ~LATC6;
  1578  00BA  3040               	movlw	64
  1579  00BB  0022               	movlb	2	; select bank2
  1580  00BC  068E               	xorwf	14,f
  1581  00BD                     l1081:	
  1582                           
  1583                           ;main.c: 82:         delay_ms(300);
  1584  00BD  302C               	movlw	44
  1585  00BE  00F8               	movwf	delay_ms@d
  1586  00BF  3001               	movlw	1
  1587  00C0  00F9               	movwf	delay_ms@d+1
  1588  00C1  3180  2077  3180   	fcall	_delay_ms
  1589  00C4  28BA               	goto	l1079
  1590  00C5  3180  2826         	ljmp	start
  1591  00C7                     __end_of_main:	
  1592                           
  1593                           	psect	text1
  1594  0077                     __ptext1:	
  1595 ;; *************** function _delay_ms *****************
  1596 ;; Defined at:
  1597 ;;		line 86 in file "main.c"
  1598 ;; Parameters:    Size  Location     Type
  1599 ;;  d               2    0[COMMON] int 
  1600 ;; Auto vars:     Size  Location     Type
  1601 ;;  i               2    3[COMMON] int 
  1602 ;; Return value:  Size  Location     Type
  1603 ;;                  1    wreg      void 
  1604 ;; Registers used:
  1605 ;;		wreg, status,2
  1606 ;; Tracked objects:
  1607 ;;		On entry : 0/0
  1608 ;;		On exit  : 0/0
  1609 ;;		Unchanged: 0/0
  1610 ;; Data sizes:     COMMON   BANK0   BANK1   BANK2   BANK3   BANK4   BANK5   BANK6
  1611 ;;      Params:         2       0       0       0       0       0       0       0
  1612 ;;      Locals:         2       0       0       0       0       0       0       0
  1613 ;;      Temps:          1       0       0       0       0       0       0       0
  1614 ;;      Totals:         5       0       0       0       0       0       0       0
  1615 ;;Total ram usage:        5 bytes
  1616 ;; Hardware stack levels used:    1
  1617 ;; Hardware stack levels required when called:    4
  1618 ;; This function calls:
  1619 ;;		Nothing
  1620 ;; This function is called by:
  1621 ;;		_main
  1622 ;; This function uses a non-reentrant model
  1623 ;;
  1624                           
  1625                           
  1626                           ;psect for function _delay_ms
  1627  0077                     _delay_ms:	
  1628  0077                     l1049:	
  1629                           ;incstack = 0
  1630                           ; Regs used in _delay_ms: [wreg+status,2]
  1631                           
  1632                           
  1633                           ;main.c: 86: void delay_ms(int d);main.c: 87: {;main.c: 88:     for(int i=0;i<d;i++)
  1634  0077  01FB               	clrf	delay_ms@i
  1635  0078  01FC               	clrf	delay_ms@i+1
  1636  0079  2886               	goto	l244
  1637  007A                     l1051:	
  1638                           
  1639                           ;main.c: 89:     {;main.c: 90:     _delay((unsigned long)((1)*(16000000/4000.0)));
  1640  007A  3006               	movlw	6
  1641  007B  00FA               	movwf	??_delay_ms
  1642  007C  3030               	movlw	48
  1643  007D                     u257:	
  1644  007D  0B89               	decfsz	9,f
  1645  007E  287D               	goto	u257
  1646  007F  0BFA               	decfsz	??_delay_ms,f
  1647  0080  287D               	goto	u257
  1648  0081  3200               	nop2
  1649                           
  1650                           ;main.c: 91:     }
  1651  0082  3001               	movlw	1
  1652  0083  07FB               	addwf	delay_ms@i,f
  1653  0084  3000               	movlw	0
  1654  0085  3DFC               	addwfc	delay_ms@i+1,f
  1655  0086                     l244:	
  1656  0086  087C               	movf	delay_ms@i+1,w
  1657  0087  3A80               	xorlw	128
  1658  0088  00FA               	movwf	??_delay_ms
  1659  0089  0879               	movf	delay_ms@d+1,w
  1660  008A  3A80               	xorlw	128
  1661  008B  027A               	subwf	??_delay_ms,w
  1662  008C  1D03               	skipz
  1663  008D  2890               	goto	u195
  1664  008E  0878               	movf	delay_ms@d,w
  1665  008F  027B               	subwf	delay_ms@i,w
  1666  0090                     u195:	
  1667  0090  1C03               	skipc
  1668  0091  2893               	goto	u191
  1669  0092  2894               	goto	u190
  1670  0093                     u191:	
  1671  0093  287A               	goto	l1051
  1672  0094                     u190:	
  1673  0094                     l247:	
  1674  0094  0008               	return
  1675  0095                     __end_of_delay_ms:	
  1676                           
  1677                           	psect	text2
  1678  00D9                     __ptext2:	
  1679 ;; *************** function _SYSTEM_Initialize *****************
  1680 ;; Defined at:
  1681 ;;		line 50 in file "mcc_generated_files/mcc.c"
  1682 ;; Parameters:    Size  Location     Type
  1683 ;;		None
  1684 ;; Auto vars:     Size  Location     Type
  1685 ;;		None
  1686 ;; Return value:  Size  Location     Type
  1687 ;;                  1    wreg      void 
  1688 ;; Registers used:
  1689 ;;		wreg, status,2, status,0, pclath, cstack
  1690 ;; Tracked objects:
  1691 ;;		On entry : 0/0
  1692 ;;		On exit  : 0/0
  1693 ;;		Unchanged: 0/0
  1694 ;; Data sizes:     COMMON   BANK0   BANK1   BANK2   BANK3   BANK4   BANK5   BANK6
  1695 ;;      Params:         0       0       0       0       0       0       0       0
  1696 ;;      Locals:         0       0       0       0       0       0       0       0
  1697 ;;      Temps:          0       0       0       0       0       0       0       0
  1698 ;;      Totals:         0       0       0       0       0       0       0       0
  1699 ;;Total ram usage:        0 bytes
  1700 ;; Hardware stack levels used:    1
  1701 ;; Hardware stack levels required when called:    6
  1702 ;; This function calls:
  1703 ;;		_EXT_INT_Initialize
  1704 ;;		_OSCILLATOR_Initialize
  1705 ;;		_PIN_MANAGER_Initialize
  1706 ;;		_TMR2_Initialize
  1707 ;;		_WDT_Initialize
  1708 ;; This function is called by:
  1709 ;;		_main
  1710 ;; This function uses a non-reentrant model
  1711 ;;
  1712                           
  1713                           
  1714                           ;psect for function _SYSTEM_Initialize
  1715  00D9                     _SYSTEM_Initialize:	
  1716  00D9                     l1039:	
  1717                           ;incstack = 0
  1718                           ; Regs used in _SYSTEM_Initialize: [wreg+status,2+status,0+pclath+cstack]
  1719                           
  1720                           
  1721                           ;mcc_generated_files/mcc.c: 53:     PIN_MANAGER_Initialize();
  1722  00D9  3180  2095  3180   	fcall	_PIN_MANAGER_Initialize
  1723                           
  1724                           ;mcc_generated_files/mcc.c: 54:     OSCILLATOR_Initialize();
  1725  00DC  3181  2105  3180   	fcall	_OSCILLATOR_Initialize
  1726                           
  1727                           ;mcc_generated_files/mcc.c: 55:     WDT_Initialize();
  1728  00DF  3181  2123  3180   	fcall	_WDT_Initialize
  1729                           
  1730                           ;mcc_generated_files/mcc.c: 56:     TMR2_Initialize();
  1731  00E2  3180  20C7  3180   	fcall	_TMR2_Initialize
  1732                           
  1733                           ;mcc_generated_files/mcc.c: 57:     EXT_INT_Initialize();
  1734  00E5  3180  20F9  3180   	fcall	_EXT_INT_Initialize
  1735  00E8                     l21:	
  1736  00E8  0008               	return
  1737  00E9                     __end_of_SYSTEM_Initialize:	
  1738                           
  1739                           	psect	text3
  1740  0123                     __ptext3:	
  1741 ;; *************** function _WDT_Initialize *****************
  1742 ;; Defined at:
  1743 ;;		line 70 in file "mcc_generated_files/mcc.c"
  1744 ;; Parameters:    Size  Location     Type
  1745 ;;		None
  1746 ;; Auto vars:     Size  Location     Type
  1747 ;;		None
  1748 ;; Return value:  Size  Location     Type
  1749 ;;                  1    wreg      void 
  1750 ;; Registers used:
  1751 ;;		wreg
  1752 ;; Tracked objects:
  1753 ;;		On entry : 0/0
  1754 ;;		On exit  : 0/0
  1755 ;;		Unchanged: 0/0
  1756 ;; Data sizes:     COMMON   BANK0   BANK1   BANK2   BANK3   BANK4   BANK5   BANK6
  1757 ;;      Params:         0       0       0       0       0       0       0       0
  1758 ;;      Locals:         0       0       0       0       0       0       0       0
  1759 ;;      Temps:          0       0       0       0       0       0       0       0
  1760 ;;      Totals:         0       0       0       0       0       0       0       0
  1761 ;;Total ram usage:        0 bytes
  1762 ;; Hardware stack levels used:    1
  1763 ;; Hardware stack levels required when called:    4
  1764 ;; This function calls:
  1765 ;;		Nothing
  1766 ;; This function is called by:
  1767 ;;		_SYSTEM_Initialize
  1768 ;; This function uses a non-reentrant model
  1769 ;;
  1770                           
  1771                           
  1772                           ;psect for function _WDT_Initialize
  1773  0123                     _WDT_Initialize:	
  1774  0123                     l877:	
  1775                           ;incstack = 0
  1776                           ; Regs used in _WDT_Initialize: [wreg]
  1777                           
  1778                           
  1779                           ;mcc_generated_files/mcc.c: 73:     WDTCON = 0x16;
  1780  0123  3016               	movlw	22
  1781  0124  0021               	movlb	1	; select bank1
  1782  0125  0097               	movwf	23	;volatile
  1783  0126                     l27:	
  1784  0126  0008               	return
  1785  0127                     __end_of_WDT_Initialize:	
  1786                           
  1787                           	psect	text4
  1788  00C7                     __ptext4:	
  1789 ;; *************** function _TMR2_Initialize *****************
  1790 ;; Defined at:
  1791 ;;		line 65 in file "mcc_generated_files/tmr2.c"
  1792 ;; Parameters:    Size  Location     Type
  1793 ;;		None
  1794 ;; Auto vars:     Size  Location     Type
  1795 ;;		None
  1796 ;; Return value:  Size  Location     Type
  1797 ;;                  1    wreg      void 
  1798 ;; Registers used:
  1799 ;;		wreg, status,2, status,0, pclath, cstack
  1800 ;; Tracked objects:
  1801 ;;		On entry : 0/0
  1802 ;;		On exit  : 0/0
  1803 ;;		Unchanged: 0/0
  1804 ;; Data sizes:     COMMON   BANK0   BANK1   BANK2   BANK3   BANK4   BANK5   BANK6
  1805 ;;      Params:         0       0       0       0       0       0       0       0
  1806 ;;      Locals:         0       0       0       0       0       0       0       0
  1807 ;;      Temps:          0       0       0       0       0       0       0       0
  1808 ;;      Totals:         0       0       0       0       0       0       0       0
  1809 ;;Total ram usage:        0 bytes
  1810 ;; Hardware stack levels used:    1
  1811 ;; Hardware stack levels required when called:    5
  1812 ;; This function calls:
  1813 ;;		_TMR2_SetInterruptHandler
  1814 ;; This function is called by:
  1815 ;;		_SYSTEM_Initialize
  1816 ;; This function uses a non-reentrant model
  1817 ;;
  1818                           
  1819                           
  1820                           ;psect for function _TMR2_Initialize
  1821  00C7                     _TMR2_Initialize:	
  1822  00C7                     l989:	
  1823                           ;incstack = 0
  1824                           ; Regs used in _TMR2_Initialize: [wreg+status,2+status,0+pclath+cstack]
  1825                           
  1826                           
  1827                           ;mcc_generated_files/tmr2.c: 70:     PR2 = 0x23;
  1828  00C7  3023               	movlw	35
  1829  00C8  0020               	movlb	0	; select bank0
  1830  00C9  009B               	movwf	27	;volatile
  1831  00CA                     l991:	
  1832                           
  1833                           ;mcc_generated_files/tmr2.c: 73:     TMR2 = 0x00;
  1834  00CA  019A               	clrf	26	;volatile
  1835  00CB                     l993:	
  1836                           
  1837                           ;mcc_generated_files/tmr2.c: 76:     PIR1bits.TMR2IF = 0;
  1838  00CB  1091               	bcf	17,1	;volatile
  1839  00CC                     l995:	
  1840                           
  1841                           ;mcc_generated_files/tmr2.c: 79:     PIE1bits.TMR2IE = 1;
  1842  00CC  0021               	movlb	1	; select bank1
  1843  00CD  1491               	bsf	17,1	;volatile
  1844  00CE                     l997:	
  1845                           
  1846                           ;mcc_generated_files/tmr2.c: 82:     TMR2_SetInterruptHandler(TMR2_DefaultInterruptHandl
      +                          er);
  1847  00CE  302D               	movlw	low _TMR2_DefaultInterruptHandler
  1848  00CF  00F8               	movwf	TMR2_SetInterruptHandler@InterruptHandler
  1849  00D0  3001               	movlw	high _TMR2_DefaultInterruptHandler
  1850  00D1  00F9               	movwf	TMR2_SetInterruptHandler@InterruptHandler+1
  1851  00D2  3181  210C  3180   	fcall	_TMR2_SetInterruptHandler
  1852  00D5                     l999:	
  1853                           
  1854                           ;mcc_generated_files/tmr2.c: 85:     T2CON = 0x6D;
  1855  00D5  306D               	movlw	109
  1856  00D6  0020               	movlb	0	; select bank0
  1857  00D7  009C               	movwf	28	;volatile
  1858  00D8                     l175:	
  1859  00D8  0008               	return
  1860  00D9                     __end_of_TMR2_Initialize:	
  1861                           
  1862                           	psect	text5
  1863  010C                     __ptext5:	
  1864 ;; *************** function _TMR2_SetInterruptHandler *****************
  1865 ;; Defined at:
  1866 ;;		line 173 in file "mcc_generated_files/tmr2.c"
  1867 ;; Parameters:    Size  Location     Type
  1868 ;;  InterruptHan    2    0[COMMON] PTR FTN()void 
  1869 ;;		 -> TMR2_DefaultInterruptHandler(1), 
  1870 ;; Auto vars:     Size  Location     Type
  1871 ;;		None
  1872 ;; Return value:  Size  Location     Type
  1873 ;;                  1    wreg      void 
  1874 ;; Registers used:
  1875 ;;		wreg
  1876 ;; Tracked objects:
  1877 ;;		On entry : 0/0
  1878 ;;		On exit  : 0/0
  1879 ;;		Unchanged: 0/0
  1880 ;; Data sizes:     COMMON   BANK0   BANK1   BANK2   BANK3   BANK4   BANK5   BANK6
  1881 ;;      Params:         2       0       0       0       0       0       0       0
  1882 ;;      Locals:         0       0       0       0       0       0       0       0
  1883 ;;      Temps:          0       0       0       0       0       0       0       0
  1884 ;;      Totals:         2       0       0       0       0       0       0       0
  1885 ;;Total ram usage:        2 bytes
  1886 ;; Hardware stack levels used:    1
  1887 ;; Hardware stack levels required when called:    4
  1888 ;; This function calls:
  1889 ;;		Nothing
  1890 ;; This function is called by:
  1891 ;;		_TMR2_Initialize
  1892 ;; This function uses a non-reentrant model
  1893 ;;
  1894                           
  1895                           
  1896                           ;psect for function _TMR2_SetInterruptHandler
  1897  010C                     _TMR2_SetInterruptHandler:	
  1898  010C                     l985:	
  1899                           ;incstack = 0
  1900                           ; Regs used in _TMR2_SetInterruptHandler: [wreg]
  1901                           
  1902                           
  1903                           ;mcc_generated_files/tmr2.c: 174:     TMR2_InterruptHandler = InterruptHandler;
  1904  010C  0879               	movf	TMR2_SetInterruptHandler@InterruptHandler+1,w
  1905  010D  0020               	movlb	0	; select bank0
  1906  010E  00A1               	movwf	_TMR2_InterruptHandler+1
  1907  010F  0878               	movf	TMR2_SetInterruptHandler@InterruptHandler,w
  1908  0110  00A0               	movwf	_TMR2_InterruptHandler
  1909  0111                     l204:	
  1910  0111  0008               	return
  1911  0112                     __end_of_TMR2_SetInterruptHandler:	
  1912                           
  1913                           	psect	text6
  1914  0095                     __ptext6:	
  1915 ;; *************** function _PIN_MANAGER_Initialize *****************
  1916 ;; Defined at:
  1917 ;;		line 55 in file "mcc_generated_files/pin_manager.c"
  1918 ;; Parameters:    Size  Location     Type
  1919 ;;		None
  1920 ;; Auto vars:     Size  Location     Type
  1921 ;;		None
  1922 ;; Return value:  Size  Location     Type
  1923 ;;                  1    wreg      void 
  1924 ;; Registers used:
  1925 ;;		wreg, status,2
  1926 ;; Tracked objects:
  1927 ;;		On entry : 0/0
  1928 ;;		On exit  : 0/0
  1929 ;;		Unchanged: 0/0
  1930 ;; Data sizes:     COMMON   BANK0   BANK1   BANK2   BANK3   BANK4   BANK5   BANK6
  1931 ;;      Params:         0       0       0       0       0       0       0       0
  1932 ;;      Locals:         0       0       0       0       0       0       0       0
  1933 ;;      Temps:          0       0       0       0       0       0       0       0
  1934 ;;      Totals:         0       0       0       0       0       0       0       0
  1935 ;;Total ram usage:        0 bytes
  1936 ;; Hardware stack levels used:    1
  1937 ;; Hardware stack levels required when called:    4
  1938 ;; This function calls:
  1939 ;;		Nothing
  1940 ;; This function is called by:
  1941 ;;		_SYSTEM_Initialize
  1942 ;; This function uses a non-reentrant model
  1943 ;;
  1944                           
  1945                           
  1946                           ;psect for function _PIN_MANAGER_Initialize
  1947  0095                     _PIN_MANAGER_Initialize:	
  1948  0095                     l863:	
  1949                           ;incstack = 0
  1950                           ; Regs used in _PIN_MANAGER_Initialize: [wreg+status,2]
  1951                           
  1952                           
  1953                           ;mcc_generated_files/pin_manager.c: 60:     LATE = 0x00;
  1954  0095  0022               	movlb	2	; select bank2
  1955  0096  0190               	clrf	16	;volatile
  1956                           
  1957                           ;mcc_generated_files/pin_manager.c: 61:     LATD = 0x00;
  1958  0097  018F               	clrf	15	;volatile
  1959                           
  1960                           ;mcc_generated_files/pin_manager.c: 62:     LATA = 0x00;
  1961  0098  018C               	clrf	12	;volatile
  1962                           
  1963                           ;mcc_generated_files/pin_manager.c: 63:     LATB = 0x00;
  1964  0099  018D               	clrf	13	;volatile
  1965                           
  1966                           ;mcc_generated_files/pin_manager.c: 64:     LATC = 0x00;
  1967  009A  018E               	clrf	14	;volatile
  1968                           
  1969                           ;mcc_generated_files/pin_manager.c: 69:     TRISE = 0x00;
  1970  009B  0021               	movlb	1	; select bank1
  1971  009C  0190               	clrf	16	;volatile
  1972                           
  1973                           ;mcc_generated_files/pin_manager.c: 70:     TRISA = 0x00;
  1974  009D  018C               	clrf	12	;volatile
  1975  009E                     l865:	
  1976                           
  1977                           ;mcc_generated_files/pin_manager.c: 71:     TRISB = 0x01;
  1978  009E  3001               	movlw	1
  1979  009F  008D               	movwf	13	;volatile
  1980  00A0                     l867:	
  1981                           
  1982                           ;mcc_generated_files/pin_manager.c: 72:     TRISC = 0x08;
  1983  00A0  3008               	movlw	8
  1984  00A1  008E               	movwf	14	;volatile
  1985                           
  1986                           ;mcc_generated_files/pin_manager.c: 73:     TRISD = 0x00;
  1987  00A2  018F               	clrf	15	;volatile
  1988                           
  1989                           ;mcc_generated_files/pin_manager.c: 78:     ANSELD = 0x00;
  1990  00A3  0023               	movlb	3	; select bank3
  1991  00A4  018F               	clrf	15	;volatile
  1992                           
  1993                           ;mcc_generated_files/pin_manager.c: 79:     ANSELB = 0x00;
  1994  00A5  018D               	clrf	13	;volatile
  1995                           
  1996                           ;mcc_generated_files/pin_manager.c: 80:     ANSELE = 0x00;
  1997  00A6  0190               	clrf	16	;volatile
  1998                           
  1999                           ;mcc_generated_files/pin_manager.c: 81:     ANSELA = 0x00;
  2000  00A7  018C               	clrf	12	;volatile
  2001                           
  2002                           ;mcc_generated_files/pin_manager.c: 86:     WPUE = 0x00;
  2003  00A8  0024               	movlb	4	; select bank4
  2004  00A9  0190               	clrf	16	;volatile
  2005                           
  2006                           ;mcc_generated_files/pin_manager.c: 87:     WPUB = 0x00;
  2007  00AA  018D               	clrf	13	;volatile
  2008  00AB                     l869:	
  2009                           
  2010                           ;mcc_generated_files/pin_manager.c: 88:     OPTION_REGbits.nWPUEN = 1;
  2011  00AB  0021               	movlb	1	; select bank1
  2012  00AC  1795               	bsf	21,7	;volatile
  2013                           
  2014                           ;mcc_generated_files/pin_manager.c: 94:     APFCON = 0x00;
  2015  00AD  0022               	movlb	2	; select bank2
  2016  00AE  019D               	clrf	29	;volatile
  2017  00AF                     l66:	
  2018  00AF  0008               	return
  2019  00B0                     __end_of_PIN_MANAGER_Initialize:	
  2020                           
  2021                           	psect	text7
  2022  0105                     __ptext7:	
  2023 ;; *************** function _OSCILLATOR_Initialize *****************
  2024 ;; Defined at:
  2025 ;;		line 60 in file "mcc_generated_files/mcc.c"
  2026 ;; Parameters:    Size  Location     Type
  2027 ;;		None
  2028 ;; Auto vars:     Size  Location     Type
  2029 ;;		None
  2030 ;; Return value:  Size  Location     Type
  2031 ;;                  1    wreg      void 
  2032 ;; Registers used:
  2033 ;;		wreg, status,2
  2034 ;; Tracked objects:
  2035 ;;		On entry : 0/0
  2036 ;;		On exit  : 0/0
  2037 ;;		Unchanged: 0/0
  2038 ;; Data sizes:     COMMON   BANK0   BANK1   BANK2   BANK3   BANK4   BANK5   BANK6
  2039 ;;      Params:         0       0       0       0       0       0       0       0
  2040 ;;      Locals:         0       0       0       0       0       0       0       0
  2041 ;;      Temps:          0       0       0       0       0       0       0       0
  2042 ;;      Totals:         0       0       0       0       0       0       0       0
  2043 ;;Total ram usage:        0 bytes
  2044 ;; Hardware stack levels used:    1
  2045 ;; Hardware stack levels required when called:    4
  2046 ;; This function calls:
  2047 ;;		Nothing
  2048 ;; This function is called by:
  2049 ;;		_SYSTEM_Initialize
  2050 ;; This function uses a non-reentrant model
  2051 ;;
  2052                           
  2053                           
  2054                           ;psect for function _OSCILLATOR_Initialize
  2055  0105                     _OSCILLATOR_Initialize:	
  2056  0105                     l871:	
  2057                           ;incstack = 0
  2058                           ; Regs used in _OSCILLATOR_Initialize: [wreg+status,2]
  2059                           
  2060                           
  2061                           ;mcc_generated_files/mcc.c: 63:     OSCCON = 0x7A;
  2062  0105  307A               	movlw	122
  2063  0106  0021               	movlb	1	; select bank1
  2064  0107  0099               	movwf	25	;volatile
  2065  0108                     l873:	
  2066                           
  2067                           ;mcc_generated_files/mcc.c: 65:     OSCTUNE = 0x00;
  2068  0108  0198               	clrf	24	;volatile
  2069  0109                     l875:	
  2070                           
  2071                           ;mcc_generated_files/mcc.c: 67:     BORCON = 0x00;
  2072  0109  0022               	movlb	2	; select bank2
  2073  010A  0196               	clrf	22	;volatile
  2074  010B                     l24:	
  2075  010B  0008               	return
  2076  010C                     __end_of_OSCILLATOR_Initialize:	
  2077                           
  2078                           	psect	text8
  2079  00F9                     __ptext8:	
  2080 ;; *************** function _EXT_INT_Initialize *****************
  2081 ;; Defined at:
  2082 ;;		line 64 in file "mcc_generated_files/ext_int.c"
  2083 ;; Parameters:    Size  Location     Type
  2084 ;;		None
  2085 ;; Auto vars:     Size  Location     Type
  2086 ;;		None
  2087 ;; Return value:  Size  Location     Type
  2088 ;;                  1    wreg      void 
  2089 ;; Registers used:
  2090 ;;		wreg, status,2, status,0, pclath, cstack
  2091 ;; Tracked objects:
  2092 ;;		On entry : 0/0
  2093 ;;		On exit  : 0/0
  2094 ;;		Unchanged: 0/0
  2095 ;; Data sizes:     COMMON   BANK0   BANK1   BANK2   BANK3   BANK4   BANK5   BANK6
  2096 ;;      Params:         0       0       0       0       0       0       0       0
  2097 ;;      Locals:         0       0       0       0       0       0       0       0
  2098 ;;      Temps:          0       0       0       0       0       0       0       0
  2099 ;;      Totals:         0       0       0       0       0       0       0       0
  2100 ;;Total ram usage:        0 bytes
  2101 ;; Hardware stack levels used:    1
  2102 ;; Hardware stack levels required when called:    5
  2103 ;; This function calls:
  2104 ;;		_INT_SetInterruptHandler
  2105 ;; This function is called by:
  2106 ;;		_SYSTEM_Initialize
  2107 ;; This function uses a non-reentrant model
  2108 ;;
  2109                           
  2110                           
  2111                           ;psect for function _EXT_INT_Initialize
  2112  00F9                     _EXT_INT_Initialize:	
  2113  00F9                     l1001:	
  2114                           ;incstack = 0
  2115                           ; Regs used in _EXT_INT_Initialize: [wreg+status,2+status,0+pclath+cstack]
  2116                           
  2117                           
  2118                           ;mcc_generated_files/ext_int.c: 69:     (INTCONbits.INTF = 0);
  2119  00F9  108B               	bcf	11,1	;volatile
  2120                           
  2121                           ;mcc_generated_files/ext_int.c: 70:     (OPTION_REGbits.INTEDG = 1);
  2122  00FA  0021               	movlb	1	; select bank1
  2123  00FB  1715               	bsf	21,6	;volatile
  2124  00FC                     l1003:	
  2125                           
  2126                           ;mcc_generated_files/ext_int.c: 72:     INT_SetInterruptHandler(INT_DefaultInterruptHand
      +                          ler);
  2127  00FC  302E               	movlw	low _INT_DefaultInterruptHandler
  2128  00FD  00F8               	movwf	INT_SetInterruptHandler@InterruptHandler
  2129  00FE  3001               	movlw	high _INT_DefaultInterruptHandler
  2130  00FF  00F9               	movwf	INT_SetInterruptHandler@InterruptHandler+1
  2131  0100  3181  2112  3180   	fcall	_INT_SetInterruptHandler
  2132  0103                     l1005:	
  2133                           
  2134                           ;mcc_generated_files/ext_int.c: 73:     (INTCONbits.INTE = 1);
  2135  0103  160B               	bsf	11,4	;volatile
  2136  0104                     l105:	
  2137  0104  0008               	return
  2138  0105                     __end_of_EXT_INT_Initialize:	
  2139                           
  2140                           	psect	text9
  2141  0112                     __ptext9:	
  2142 ;; *************** function _INT_SetInterruptHandler *****************
  2143 ;; Defined at:
  2144 ;;		line 55 in file "mcc_generated_files/ext_int.c"
  2145 ;; Parameters:    Size  Location     Type
  2146 ;;  InterruptHan    2    0[COMMON] PTR FTN()void 
  2147 ;;		 -> INT_DefaultInterruptHandler(1), 
  2148 ;; Auto vars:     Size  Location     Type
  2149 ;;		None
  2150 ;; Return value:  Size  Location     Type
  2151 ;;                  1    wreg      void 
  2152 ;; Registers used:
  2153 ;;		wreg
  2154 ;; Tracked objects:
  2155 ;;		On entry : 0/0
  2156 ;;		On exit  : 0/0
  2157 ;;		Unchanged: 0/0
  2158 ;; Data sizes:     COMMON   BANK0   BANK1   BANK2   BANK3   BANK4   BANK5   BANK6
  2159 ;;      Params:         2       0       0       0       0       0       0       0
  2160 ;;      Locals:         0       0       0       0       0       0       0       0
  2161 ;;      Temps:          0       0       0       0       0       0       0       0
  2162 ;;      Totals:         2       0       0       0       0       0       0       0
  2163 ;;Total ram usage:        2 bytes
  2164 ;; Hardware stack levels used:    1
  2165 ;; Hardware stack levels required when called:    4
  2166 ;; This function calls:
  2167 ;;		Nothing
  2168 ;; This function is called by:
  2169 ;;		_EXT_INT_Initialize
  2170 ;; This function uses a non-reentrant model
  2171 ;;
  2172                           
  2173                           
  2174                           ;psect for function _INT_SetInterruptHandler
  2175  0112                     _INT_SetInterruptHandler:	
  2176  0112                     l983:	
  2177                           ;incstack = 0
  2178                           ; Regs used in _INT_SetInterruptHandler: [wreg]
  2179                           
  2180                           
  2181                           ;mcc_generated_files/ext_int.c: 56:     INT_InterruptHandler = InterruptHandler;
  2182  0112  0879               	movf	INT_SetInterruptHandler@InterruptHandler+1,w
  2183  0113  0020               	movlb	0	; select bank0
  2184  0114  00A3               	movwf	_INT_InterruptHandler+1
  2185  0115  0878               	movf	INT_SetInterruptHandler@InterruptHandler,w
  2186  0116  00A2               	movwf	_INT_InterruptHandler
  2187  0117                     l99:	
  2188  0117  0008               	return
  2189  0118                     __end_of_INT_SetInterruptHandler:	
  2190                           
  2191                           	psect	intentry
  2192  0004                     __pintentry:	
  2193 ;; *************** function _INTERRUPT_InterruptManager *****************
  2194 ;; Defined at:
  2195 ;;		line 53 in file "mcc_generated_files/interrupt_manager.c"
  2196 ;; Parameters:    Size  Location     Type
  2197 ;;		None
  2198 ;; Auto vars:     Size  Location     Type
  2199 ;;		None
  2200 ;; Return value:  Size  Location     Type
  2201 ;;                  1    wreg      void 
  2202 ;; Registers used:
  2203 ;;		wreg, status,2, status,0, pclath, cstack
  2204 ;; Tracked objects:
  2205 ;;		On entry : 0/0
  2206 ;;		On exit  : 0/0
  2207 ;;		Unchanged: 0/0
  2208 ;; Data sizes:     COMMON   BANK0   BANK1   BANK2   BANK3   BANK4   BANK5   BANK6
  2209 ;;      Params:         0       0       0       0       0       0       0       0
  2210 ;;      Locals:         0       0       0       0       0       0       0       0
  2211 ;;      Temps:          0       0       0       0       0       0       0       0
  2212 ;;      Totals:         0       0       0       0       0       0       0       0
  2213 ;;Total ram usage:        0 bytes
  2214 ;; Hardware stack levels used:    1
  2215 ;; Hardware stack levels required when called:    3
  2216 ;; This function calls:
  2217 ;;		_INT_ISR
  2218 ;;		_TMR2_ISR
  2219 ;; This function is called by:
  2220 ;;		Interrupt level 1
  2221 ;; This function uses a non-reentrant model
  2222 ;;
  2223                           
  2224  0004                     _INTERRUPT_InterruptManager:	
  2225                           
  2226                           ;incstack = 0
  2227  0004  147E               	bsf	int$flags,0	;set compiler interrupt flag (level 1)
  2228                           
  2229                           ; Regs used in _INTERRUPT_InterruptManager: [wreg+status,2+status,0+pclath+cstack]
  2230  0005  3180               	pagesel	$
  2231  0006                     i1l1053:	
  2232                           
  2233                           ;mcc_generated_files/interrupt_manager.c: 56:     if(INTCONbits.INTE == 1 && INTCONbits.
      +                          INTF == 1)
  2234  0006  1E0B               	btfss	11,4	;volatile
  2235  0007  2809               	goto	u20_21
  2236  0008  280A               	goto	u20_20
  2237  0009                     u20_21:	
  2238  0009  2812               	goto	i1l130
  2239  000A                     u20_20:	
  2240  000A                     i1l1055:	
  2241  000A  1C8B               	btfss	11,1	;volatile
  2242  000B  280D               	goto	u21_21
  2243  000C  280E               	goto	u21_20
  2244  000D                     u21_21:	
  2245  000D  2812               	goto	i1l130
  2246  000E                     u21_20:	
  2247  000E                     i1l1057:	
  2248                           
  2249                           ;mcc_generated_files/interrupt_manager.c: 57:     {;mcc_generated_files/interrupt_manage
      +                          r.c: 58:         INT_ISR();
  2250  000E  3181  211E  3180   	fcall	_INT_ISR
  2251                           
  2252                           ;mcc_generated_files/interrupt_manager.c: 59:     }
  2253  0011  2824               	goto	i1l136
  2254  0012                     i1l130:	
  2255                           ;mcc_generated_files/interrupt_manager.c: 60:     else if(INTCONbits.PEIE == 1)
  2256                           
  2257  0012  1F0B               	btfss	11,6	;volatile
  2258  0013  2815               	goto	u22_21
  2259  0014  2816               	goto	u22_20
  2260  0015                     u22_21:	
  2261  0015  2824               	goto	i1l136
  2262  0016                     u22_20:	
  2263  0016                     i1l1059:	
  2264                           
  2265                           ;mcc_generated_files/interrupt_manager.c: 61:     {;mcc_generated_files/interrupt_manage
      +                          r.c: 62:         if(PIE1bits.TMR2IE == 1 && PIR1bits.TMR2IF == 1)
  2266  0016  0021               	movlb	1	; select bank1
  2267  0017  1C91               	btfss	17,1	;volatile
  2268  0018  281A               	goto	u23_21
  2269  0019  281B               	goto	u23_20
  2270  001A                     u23_21:	
  2271  001A  2824               	goto	i1l135
  2272  001B                     u23_20:	
  2273  001B                     i1l1061:	
  2274  001B  0020               	movlb	0	; select bank0
  2275  001C  1C91               	btfss	17,1	;volatile
  2276  001D  281F               	goto	u24_21
  2277  001E  2820               	goto	u24_20
  2278  001F                     u24_21:	
  2279  001F  2824               	goto	i1l135
  2280  0020                     u24_20:	
  2281  0020                     i1l1063:	
  2282                           
  2283                           ;mcc_generated_files/interrupt_manager.c: 63:         {;mcc_generated_files/interrupt_ma
      +                          nager.c: 64:             TMR2_ISR();
  2284  0020  3181  2118  3180   	fcall	_TMR2_ISR
  2285                           
  2286                           ;mcc_generated_files/interrupt_manager.c: 65:         }
  2287  0023  2824               	goto	i1l136
  2288  0024                     i1l135:	
  2289                           ;mcc_generated_files/interrupt_manager.c: 72:     {;mcc_generated_files/interrupt_manage
      +                          r.c: 74:     }
  2290                           
  2291  0024                     i1l136:	
  2292  0024  107E               	bcf	int$flags,0	;clear compiler interrupt flag (level 1)
  2293  0025  0009               	retfie
  2294  0026                     __end_of_INTERRUPT_InterruptManager:	
  2295                           
  2296                           	psect	text11
  2297  0118                     __ptext11:	
  2298 ;; *************** function _TMR2_ISR *****************
  2299 ;; Defined at:
  2300 ;;		line 120 in file "mcc_generated_files/tmr2.c"
  2301 ;; Parameters:    Size  Location     Type
  2302 ;;		None
  2303 ;; Auto vars:     Size  Location     Type
  2304 ;;		None
  2305 ;; Return value:  Size  Location     Type
  2306 ;;                  1    wreg      void 
  2307 ;; Registers used:
  2308 ;;		wreg, status,2, status,0, pclath, cstack
  2309 ;; Tracked objects:
  2310 ;;		On entry : 0/0
  2311 ;;		On exit  : 0/0
  2312 ;;		Unchanged: 0/0
  2313 ;; Data sizes:     COMMON   BANK0   BANK1   BANK2   BANK3   BANK4   BANK5   BANK6
  2314 ;;      Params:         0       0       0       0       0       0       0       0
  2315 ;;      Locals:         0       0       0       0       0       0       0       0
  2316 ;;      Temps:          0       0       0       0       0       0       0       0
  2317 ;;      Totals:         0       0       0       0       0       0       0       0
  2318 ;;Total ram usage:        0 bytes
  2319 ;; Hardware stack levels used:    1
  2320 ;; Hardware stack levels required when called:    2
  2321 ;; This function calls:
  2322 ;;		_TMR2_CallBack
  2323 ;; This function is called by:
  2324 ;;		_INTERRUPT_InterruptManager
  2325 ;; This function uses a non-reentrant model
  2326 ;;
  2327                           
  2328                           
  2329                           ;psect for function _TMR2_ISR
  2330  0118                     _TMR2_ISR:	
  2331  0118                     i1l1045:	
  2332                           ;incstack = 0
  2333                           ; Regs used in _TMR2_ISR: [wreg+status,2+status,0+pclath+cstack]
  2334                           
  2335                           
  2336                           ;mcc_generated_files/tmr2.c: 124:     PIR1bits.TMR2IF = 0;
  2337  0118  0020               	movlb	0	; select bank0
  2338  0119  1091               	bcf	17,1	;volatile
  2339  011A                     i1l1047:	
  2340                           
  2341                           ;mcc_generated_files/tmr2.c: 128:     TMR2_CallBack();
  2342  011A  3180  2037  3181   	fcall	_TMR2_CallBack
  2343  011D                     i1l193:	
  2344  011D  0008               	return
  2345  011E                     __end_of_TMR2_ISR:	
  2346                           
  2347                           	psect	text12
  2348  0037                     __ptext12:	
  2349 ;; *************** function _TMR2_CallBack *****************
  2350 ;; Defined at:
  2351 ;;		line 131 in file "mcc_generated_files/tmr2.c"
  2352 ;; Parameters:    Size  Location     Type
  2353 ;;		None
  2354 ;; Auto vars:     Size  Location     Type
  2355 ;;		None
  2356 ;; Return value:  Size  Location     Type
  2357 ;;                  1    wreg      void 
  2358 ;; Registers used:
  2359 ;;		wreg, status,2, status,0, pclath, cstack
  2360 ;; Tracked objects:
  2361 ;;		On entry : 0/0
  2362 ;;		On exit  : 0/0
  2363 ;;		Unchanged: 0/0
  2364 ;; Data sizes:     COMMON   BANK0   BANK1   BANK2   BANK3   BANK4   BANK5   BANK6
  2365 ;;      Params:         0       0       0       0       0       0       0       0
  2366 ;;      Locals:         0       0       0       0       0       0       0       0
  2367 ;;      Temps:          0       0       0       0       0       0       0       0
  2368 ;;      Totals:         0       0       0       0       0       0       0       0
  2369 ;;Total ram usage:        0 bytes
  2370 ;; Hardware stack levels used:    1
  2371 ;; Hardware stack levels required when called:    1
  2372 ;; This function calls:
  2373 ;;		Absolute function
  2374 ;;		_TMR2_DefaultInterruptHandler
  2375 ;;		_TMR2_StopTimer
  2376 ;; This function is called by:
  2377 ;;		_TMR2_ISR
  2378 ;; This function uses a non-reentrant model
  2379 ;;
  2380                           
  2381                           
  2382                           ;psect for function _TMR2_CallBack
  2383  0037                     _TMR2_CallBack:	
  2384  0037                     i1l1013:	
  2385                           ;incstack = 0
  2386                           ; Regs used in _TMR2_CallBack: [wreg+status,2+status,0+pclath+cstack]
  2387                           
  2388                           
  2389                           ;mcc_generated_files/tmr2.c: 135:     cnt1++;
  2390  0037  3001               	movlw	1
  2391  0038  07F4               	addwf	_cnt1,f
  2392  0039  3000               	movlw	0
  2393  003A  3DF5               	addwfc	_cnt1+1,f
  2394                           
  2395                           ;mcc_generated_files/tmr2.c: 136:     ctr1++;
  2396  003B  3001               	movlw	1
  2397  003C  07F2               	addwf	_ctr1,f
  2398  003D  3000               	movlw	0
  2399  003E  3DF3               	addwfc	_ctr1+1,f
  2400  003F                     i1l1015:	
  2401                           
  2402                           ;mcc_generated_files/tmr2.c: 138:     if( cnt1 == 9 )
  2403  003F  3009               	movlw	9
  2404  0040  0674               	xorwf	_cnt1,w
  2405  0041  0475               	iorwf	_cnt1+1,w
  2406  0042  1D03               	btfss	3,2
  2407  0043  2845               	goto	u14_21
  2408  0044  2846               	goto	u14_20
  2409  0045                     u14_21:	
  2410  0045  2849               	goto	i1l1019
  2411  0046                     u14_20:	
  2412  0046                     i1l1017:	
  2413                           
  2414                           ;mcc_generated_files/tmr2.c: 139:     {;mcc_generated_files/tmr2.c: 140:         LATC5 =
      +                           1;
  2415  0046  0022               	movlb	2	; select bank2
  2416  0047  168E               	bsf	14,5	;volatile
  2417                           
  2418                           ;mcc_generated_files/tmr2.c: 141:         LATA3 = 1;
  2419  0048  158C               	bsf	12,3	;volatile
  2420  0049                     i1l1019:	
  2421                           
  2422                           ;mcc_generated_files/tmr2.c: 143:     if(cnt1 == 12 )
  2423  0049  300C               	movlw	12
  2424  004A  0674               	xorwf	_cnt1,w
  2425  004B  0475               	iorwf	_cnt1+1,w
  2426  004C  1D03               	btfss	3,2
  2427  004D  284F               	goto	u15_21
  2428  004E  2850               	goto	u15_20
  2429  004F                     u15_21:	
  2430  004F  2853               	goto	i1l1023
  2431  0050                     u15_20:	
  2432  0050                     i1l1021:	
  2433                           
  2434                           ;mcc_generated_files/tmr2.c: 144:     {;mcc_generated_files/tmr2.c: 145:         LATC5 =
      +                           0;
  2435  0050  0022               	movlb	2	; select bank2
  2436  0051  128E               	bcf	14,5	;volatile
  2437                           
  2438                           ;mcc_generated_files/tmr2.c: 146:         LATA3 = 0;
  2439  0052  118C               	bcf	12,3	;volatile
  2440  0053                     i1l1023:	
  2441                           
  2442                           ;mcc_generated_files/tmr2.c: 152:     if(cnt1 == 25)
  2443  0053  3019               	movlw	25
  2444  0054  0674               	xorwf	_cnt1,w
  2445  0055  0475               	iorwf	_cnt1+1,w
  2446  0056  1D03               	btfss	3,2
  2447  0057  2859               	goto	u16_21
  2448  0058  285A               	goto	u16_20
  2449  0059                     u16_21:	
  2450  0059  285C               	goto	i1l1027
  2451  005A                     u16_20:	
  2452  005A                     i1l1025:	
  2453                           
  2454                           ;mcc_generated_files/tmr2.c: 153:     {;mcc_generated_files/tmr2.c: 154:         LATD0 =
      +                           1;
  2455  005A  0022               	movlb	2	; select bank2
  2456  005B  140F               	bsf	15,0	;volatile
  2457  005C                     i1l1027:	
  2458                           
  2459                           ;mcc_generated_files/tmr2.c: 156:     if(cnt1 == 30)
  2460  005C  301E               	movlw	30
  2461  005D  0674               	xorwf	_cnt1,w
  2462  005E  0475               	iorwf	_cnt1+1,w
  2463  005F  1D03               	btfss	3,2
  2464  0060  2862               	goto	u17_21
  2465  0061  2863               	goto	u17_20
  2466  0062                     u17_21:	
  2467  0062  286A               	goto	i1l1035
  2468  0063                     u17_20:	
  2469  0063                     i1l1029:	
  2470                           
  2471                           ;mcc_generated_files/tmr2.c: 157:     {;mcc_generated_files/tmr2.c: 158:         LATD0 =
      +                           0;
  2472  0063  0022               	movlb	2	; select bank2
  2473  0064  100F               	bcf	15,0	;volatile
  2474  0065                     i1l1031:	
  2475                           
  2476                           ;mcc_generated_files/tmr2.c: 159:         TMR2_StopTimer();
  2477  0065  3181  2127  3180   	fcall	_TMR2_StopTimer
  2478  0068                     i1l1033:	
  2479                           
  2480                           ;mcc_generated_files/tmr2.c: 160:         cnt1 = 0;
  2481  0068  01F4               	clrf	_cnt1
  2482  0069  01F5               	clrf	_cnt1+1
  2483  006A                     i1l1035:	
  2484                           
  2485                           ;mcc_generated_files/tmr2.c: 167:     if(TMR2_InterruptHandler)
  2486  006A  0020               	movlb	0	; select bank0
  2487  006B  0820               	movf	_TMR2_InterruptHandler,w
  2488  006C  0421               	iorwf	_TMR2_InterruptHandler+1,w
  2489  006D  1903               	btfsc	3,2
  2490  006E  2870               	goto	u18_21
  2491  006F  2871               	goto	u18_20
  2492  0070                     u18_21:	
  2493  0070  2876               	goto	i1l201
  2494  0071                     u18_20:	
  2495  0071                     i1l1037:	
  2496                           
  2497                           ;mcc_generated_files/tmr2.c: 168:     {;mcc_generated_files/tmr2.c: 169:         TMR2_In
      +                          terruptHandler();
  2498  0071  0821               	movf	_TMR2_InterruptHandler+1,w
  2499  0072  008A               	movwf	10
  2500  0073  0820               	movf	_TMR2_InterruptHandler,w
  2501  0074  000A               	callw
  2502  0075  3180               	pagesel	$
  2503  0076                     i1l201:	
  2504  0076  0008               	return
  2505  0077                     __end_of_TMR2_CallBack:	
  2506                           
  2507                           	psect	text13
  2508  0127                     __ptext13:	
  2509 ;; *************** function _TMR2_StopTimer *****************
  2510 ;; Defined at:
  2511 ;;		line 94 in file "mcc_generated_files/tmr2.c"
  2512 ;; Parameters:    Size  Location     Type
  2513 ;;		None
  2514 ;; Auto vars:     Size  Location     Type
  2515 ;;		None
  2516 ;; Return value:  Size  Location     Type
  2517 ;;                  1    wreg      void 
  2518 ;; Registers used:
  2519 ;;		None
  2520 ;; Tracked objects:
  2521 ;;		On entry : 0/0
  2522 ;;		On exit  : 0/0
  2523 ;;		Unchanged: 0/0
  2524 ;; Data sizes:     COMMON   BANK0   BANK1   BANK2   BANK3   BANK4   BANK5   BANK6
  2525 ;;      Params:         0       0       0       0       0       0       0       0
  2526 ;;      Locals:         0       0       0       0       0       0       0       0
  2527 ;;      Temps:          0       0       0       0       0       0       0       0
  2528 ;;      Totals:         0       0       0       0       0       0       0       0
  2529 ;;Total ram usage:        0 bytes
  2530 ;; Hardware stack levels used:    1
  2531 ;; This function calls:
  2532 ;;		Nothing
  2533 ;; This function is called by:
  2534 ;;		_TMR2_CallBack
  2535 ;; This function uses a non-reentrant model
  2536 ;;
  2537                           
  2538                           
  2539                           ;psect for function _TMR2_StopTimer
  2540  0127                     _TMR2_StopTimer:	
  2541  0127                     i1l987:	
  2542                           ;incstack = 0
  2543                           ; Regs used in _TMR2_StopTimer: []
  2544                           
  2545                           
  2546                           ;mcc_generated_files/tmr2.c: 97:     T2CONbits.TMR2ON = 0;
  2547  0127  0020               	movlb	0	; select bank0
  2548  0128  111C               	bcf	28,2	;volatile
  2549  0129                     i1l181:	
  2550  0129  0008               	return
  2551  012A                     __end_of_TMR2_StopTimer:	
  2552                           
  2553                           	psect	text14
  2554  012D                     __ptext14:	
  2555 ;; *************** function _TMR2_DefaultInterruptHandler *****************
  2556 ;; Defined at:
  2557 ;;		line 177 in file "mcc_generated_files/tmr2.c"
  2558 ;; Parameters:    Size  Location     Type
  2559 ;;		None
  2560 ;; Auto vars:     Size  Location     Type
  2561 ;;		None
  2562 ;; Return value:  Size  Location     Type
  2563 ;;                  1    wreg      void 
  2564 ;; Registers used:
  2565 ;;		None
  2566 ;; Tracked objects:
  2567 ;;		On entry : 0/0
  2568 ;;		On exit  : 0/0
  2569 ;;		Unchanged: 0/0
  2570 ;; Data sizes:     COMMON   BANK0   BANK1   BANK2   BANK3   BANK4   BANK5   BANK6
  2571 ;;      Params:         0       0       0       0       0       0       0       0
  2572 ;;      Locals:         0       0       0       0       0       0       0       0
  2573 ;;      Temps:          0       0       0       0       0       0       0       0
  2574 ;;      Totals:         0       0       0       0       0       0       0       0
  2575 ;;Total ram usage:        0 bytes
  2576 ;; Hardware stack levels used:    1
  2577 ;; This function calls:
  2578 ;;		Nothing
  2579 ;; This function is called by:
  2580 ;;		_TMR2_Initialize
  2581 ;;		_TMR2_CallBack
  2582 ;; This function uses a non-reentrant model
  2583 ;;
  2584                           
  2585                           
  2586                           ;psect for function _TMR2_DefaultInterruptHandler
  2587  012D                     _TMR2_DefaultInterruptHandler:	
  2588  012D                     i1l207:	
  2589                           ;incstack = 0
  2590                           ; Regs used in _TMR2_DefaultInterruptHandler: []
  2591                           
  2592  012D  0008               	return
  2593  012E                     __end_of_TMR2_DefaultInterruptHandler:	
  2594                           
  2595                           	psect	text15
  2596  011E                     __ptext15:	
  2597 ;; *************** function _INT_ISR *****************
  2598 ;; Defined at:
  2599 ;;		line 34 in file "mcc_generated_files/ext_int.c"
  2600 ;; Parameters:    Size  Location     Type
  2601 ;;		None
  2602 ;; Auto vars:     Size  Location     Type
  2603 ;;		None
  2604 ;; Return value:  Size  Location     Type
  2605 ;;                  1    wreg      void 
  2606 ;; Registers used:
  2607 ;;		wreg, status,2, status,0, pclath, cstack
  2608 ;; Tracked objects:
  2609 ;;		On entry : 0/0
  2610 ;;		On exit  : 0/0
  2611 ;;		Unchanged: 0/0
  2612 ;; Data sizes:     COMMON   BANK0   BANK1   BANK2   BANK3   BANK4   BANK5   BANK6
  2613 ;;      Params:         0       0       0       0       0       0       0       0
  2614 ;;      Locals:         0       0       0       0       0       0       0       0
  2615 ;;      Temps:          0       0       0       0       0       0       0       0
  2616 ;;      Totals:         0       0       0       0       0       0       0       0
  2617 ;;Total ram usage:        0 bytes
  2618 ;; Hardware stack levels used:    1
  2619 ;; Hardware stack levels required when called:    2
  2620 ;; This function calls:
  2621 ;;		_INT_CallBack
  2622 ;; This function is called by:
  2623 ;;		_INTERRUPT_InterruptManager
  2624 ;; This function uses a non-reentrant model
  2625 ;;
  2626                           
  2627                           
  2628                           ;psect for function _INT_ISR
  2629  011E                     _INT_ISR:	
  2630  011E                     i1l1041:	
  2631                           ;incstack = 0
  2632                           ; Regs used in _INT_ISR: [wreg+status,2+status,0+pclath+cstack]
  2633                           
  2634                           
  2635                           ;mcc_generated_files/ext_int.c: 36:     (INTCONbits.INTF = 0);
  2636  011E  108B               	bcf	11,1	;volatile
  2637  011F                     i1l1043:	
  2638                           
  2639                           ;mcc_generated_files/ext_int.c: 39:     INT_CallBack();
  2640  011F  3180  20E9  3181   	fcall	_INT_CallBack
  2641  0122                     i1l92:	
  2642  0122  0008               	return
  2643  0123                     __end_of_INT_ISR:	
  2644                           
  2645                           	psect	text16
  2646  00E9                     __ptext16:	
  2647 ;; *************** function _INT_CallBack *****************
  2648 ;; Defined at:
  2649 ;;		line 43 in file "mcc_generated_files/ext_int.c"
  2650 ;; Parameters:    Size  Location     Type
  2651 ;;		None
  2652 ;; Auto vars:     Size  Location     Type
  2653 ;;		None
  2654 ;; Return value:  Size  Location     Type
  2655 ;;                  1    wreg      void 
  2656 ;; Registers used:
  2657 ;;		wreg, status,2, status,0, pclath, cstack
  2658 ;; Tracked objects:
  2659 ;;		On entry : 0/0
  2660 ;;		On exit  : 0/0
  2661 ;;		Unchanged: 0/0
  2662 ;; Data sizes:     COMMON   BANK0   BANK1   BANK2   BANK3   BANK4   BANK5   BANK6
  2663 ;;      Params:         0       0       0       0       0       0       0       0
  2664 ;;      Locals:         0       0       0       0       0       0       0       0
  2665 ;;      Temps:          0       0       0       0       0       0       0       0
  2666 ;;      Totals:         0       0       0       0       0       0       0       0
  2667 ;;Total ram usage:        0 bytes
  2668 ;; Hardware stack levels used:    1
  2669 ;; Hardware stack levels required when called:    1
  2670 ;; This function calls:
  2671 ;;		Absolute function
  2672 ;;		_INT_DefaultInterruptHandler
  2673 ;;		_TMR2_StartTimer
  2674 ;; This function is called by:
  2675 ;;		_INT_ISR
  2676 ;; This function uses a non-reentrant model
  2677 ;;
  2678                           
  2679                           
  2680                           ;psect for function _INT_CallBack
  2681  00E9                     _INT_CallBack:	
  2682  00E9                     i1l1007:	
  2683                           ;incstack = 0
  2684                           ; Regs used in _INT_CallBack: [wreg+status,2+status,0+pclath+cstack]
  2685                           
  2686                           
  2687                           ;mcc_generated_files/ext_int.c: 48:     TMR2_StartTimer();
  2688  00E9  3181  212A  3180   	fcall	_TMR2_StartTimer
  2689  00EC                     i1l1009:	
  2690                           
  2691                           ;mcc_generated_files/ext_int.c: 49:     if(INT_InterruptHandler)
  2692  00EC  0020               	movlb	0	; select bank0
  2693  00ED  0822               	movf	_INT_InterruptHandler,w
  2694  00EE  0423               	iorwf	_INT_InterruptHandler+1,w
  2695  00EF  1903               	btfsc	3,2
  2696  00F0  28F2               	goto	u13_21
  2697  00F1  28F3               	goto	u13_20
  2698  00F2                     u13_21:	
  2699  00F2  28F8               	goto	i1l96
  2700  00F3                     u13_20:	
  2701  00F3                     i1l1011:	
  2702                           
  2703                           ;mcc_generated_files/ext_int.c: 50:     {;mcc_generated_files/ext_int.c: 51:         INT
      +                          _InterruptHandler();
  2704  00F3  0823               	movf	_INT_InterruptHandler+1,w
  2705  00F4  008A               	movwf	10
  2706  00F5  0822               	movf	_INT_InterruptHandler,w
  2707  00F6  000A               	callw
  2708  00F7  3180               	pagesel	$
  2709  00F8                     i1l96:	
  2710  00F8  0008               	return
  2711  00F9                     __end_of_INT_CallBack:	
  2712                           
  2713                           	psect	text17
  2714  012A                     __ptext17:	
  2715 ;; *************** function _TMR2_StartTimer *****************
  2716 ;; Defined at:
  2717 ;;		line 88 in file "mcc_generated_files/tmr2.c"
  2718 ;; Parameters:    Size  Location     Type
  2719 ;;		None
  2720 ;; Auto vars:     Size  Location     Type
  2721 ;;		None
  2722 ;; Return value:  Size  Location     Type
  2723 ;;                  1    wreg      void 
  2724 ;; Registers used:
  2725 ;;		None
  2726 ;; Tracked objects:
  2727 ;;		On entry : 0/0
  2728 ;;		On exit  : 0/0
  2729 ;;		Unchanged: 0/0
  2730 ;; Data sizes:     COMMON   BANK0   BANK1   BANK2   BANK3   BANK4   BANK5   BANK6
  2731 ;;      Params:         0       0       0       0       0       0       0       0
  2732 ;;      Locals:         0       0       0       0       0       0       0       0
  2733 ;;      Temps:          0       0       0       0       0       0       0       0
  2734 ;;      Totals:         0       0       0       0       0       0       0       0
  2735 ;;Total ram usage:        0 bytes
  2736 ;; Hardware stack levels used:    1
  2737 ;; This function calls:
  2738 ;;		Nothing
  2739 ;; This function is called by:
  2740 ;;		_INT_CallBack
  2741 ;; This function uses a non-reentrant model
  2742 ;;
  2743                           
  2744                           
  2745                           ;psect for function _TMR2_StartTimer
  2746  012A                     _TMR2_StartTimer:	
  2747  012A                     i1l981:	
  2748                           ;incstack = 0
  2749                           ; Regs used in _TMR2_StartTimer: []
  2750                           
  2751                           
  2752                           ;mcc_generated_files/tmr2.c: 91:     T2CONbits.TMR2ON = 1;
  2753  012A  0020               	movlb	0	; select bank0
  2754  012B  151C               	bsf	28,2	;volatile
  2755  012C                     i1l178:	
  2756  012C  0008               	return
  2757  012D                     __end_of_TMR2_StartTimer:	
  2758                           
  2759                           	psect	text18
  2760  012E                     __ptext18:	
  2761 ;; *************** function _INT_DefaultInterruptHandler *****************
  2762 ;; Defined at:
  2763 ;;		line 59 in file "mcc_generated_files/ext_int.c"
  2764 ;; Parameters:    Size  Location     Type
  2765 ;;		None
  2766 ;; Auto vars:     Size  Location     Type
  2767 ;;		None
  2768 ;; Return value:  Size  Location     Type
  2769 ;;                  1    wreg      void 
  2770 ;; Registers used:
  2771 ;;		None
  2772 ;; Tracked objects:
  2773 ;;		On entry : 0/0
  2774 ;;		On exit  : 0/0
  2775 ;;		Unchanged: 0/0
  2776 ;; Data sizes:     COMMON   BANK0   BANK1   BANK2   BANK3   BANK4   BANK5   BANK6
  2777 ;;      Params:         0       0       0       0       0       0       0       0
  2778 ;;      Locals:         0       0       0       0       0       0       0       0
  2779 ;;      Temps:          0       0       0       0       0       0       0       0
  2780 ;;      Totals:         0       0       0       0       0       0       0       0
  2781 ;;Total ram usage:        0 bytes
  2782 ;; Hardware stack levels used:    1
  2783 ;; This function calls:
  2784 ;;		Nothing
  2785 ;; This function is called by:
  2786 ;;		_EXT_INT_Initialize
  2787 ;;		_INT_CallBack
  2788 ;; This function uses a non-reentrant model
  2789 ;;
  2790                           
  2791                           
  2792                           ;psect for function _INT_DefaultInterruptHandler
  2793  012E                     _INT_DefaultInterruptHandler:	
  2794  012E                     i1l102:	
  2795                           ;incstack = 0
  2796                           ; Regs used in _INT_DefaultInterruptHandler: []
  2797                           
  2798  012E  0008               	return
  2799  012F                     __end_of_INT_DefaultInterruptHandler:	
  2800  007E                     btemp	set	126	;btemp
  2801  007E                     int$flags	set	126
  2802  007E                     wtemp0	set	126


Data Sizes:
    Strings     0
    Constant    0
    Data        0
    BSS         10
    Persistent  36
    Stack       0

Auto Spaces:
    Space          Size  Autos    Used
    COMMON           14      5      13
    BANK0            80      0       6
    BANK1            80      0       0
    BANK2            80      0       0
    BANK3            80      0       0
    BANK4            80      0       0
    BANK5            80      0       0
    BANK6            16      0       0

Pointer List with Targets:

    TMR2_SetInterruptHandler@InterruptHandler	PTR FTN()void  size(2) Largest target is 1
		 -> TMR2_DefaultInterruptHandler(), 

    TMR2_InterruptHandler	PTR FTN()void  size(2) Largest target is 1
		 -> TMR2_DefaultInterruptHandler(), Absolute function(), 

    INT_SetInterruptHandler@InterruptHandler	PTR FTN()void  size(2) Largest target is 1
		 -> INT_DefaultInterruptHandler(), 

    INT_InterruptHandler	PTR FTN()void  size(2) Largest target is 1
		 -> INT_DefaultInterruptHandler(), Absolute function(), 


Critical Paths under _main in COMMON

    _main->_delay_ms
    _TMR2_Initialize->_TMR2_SetInterruptHandler
    _EXT_INT_Initialize->_INT_SetInterruptHandler

Critical Paths under _INTERRUPT_InterruptManager in COMMON

    None.

Critical Paths under _main in BANK0

    None.

Critical Paths under _INTERRUPT_InterruptManager in BANK0

    None.

Critical Paths under _main in BANK1

    None.

Critical Paths under _INTERRUPT_InterruptManager in BANK1

    None.

Critical Paths under _main in BANK2

    None.

Critical Paths under _INTERRUPT_InterruptManager in BANK2

    None.

Critical Paths under _main in BANK3

    None.

Critical Paths under _INTERRUPT_InterruptManager in BANK3

    None.

Critical Paths under _main in BANK4

    None.

Critical Paths under _INTERRUPT_InterruptManager in BANK4

    None.

Critical Paths under _main in BANK5

    None.

Critical Paths under _INTERRUPT_InterruptManager in BANK5

    None.

Critical Paths under _main in BANK6

    None.

Critical Paths under _INTERRUPT_InterruptManager in BANK6

    None.

Call Graph Tables:

 ---------------------------------------------------------------------------------
 (Depth) Function   	        Calls       Base Space   Used Autos Params    Refs
 ---------------------------------------------------------------------------------
 (0) _main                                                 0     0      0     318
                  _SYSTEM_Initialize
                           _delay_ms
 ---------------------------------------------------------------------------------
 (1) _delay_ms                                             5     3      2     122
                                              0 COMMON     5     3      2
 ---------------------------------------------------------------------------------
 (1) _SYSTEM_Initialize                                    0     0      0     196
                 _EXT_INT_Initialize
              _OSCILLATOR_Initialize
             _PIN_MANAGER_Initialize
                    _TMR2_Initialize
                     _WDT_Initialize
 ---------------------------------------------------------------------------------
 (2) _WDT_Initialize                                       0     0      0       0
 ---------------------------------------------------------------------------------
 (2) _TMR2_Initialize                                      0     0      0      98
           _TMR2_SetInterruptHandler
 ---------------------------------------------------------------------------------
 (3) _TMR2_SetInterruptHandler                             2     0      2      98
                                              0 COMMON     2     0      2
 ---------------------------------------------------------------------------------
 (2) _PIN_MANAGER_Initialize                               0     0      0       0
 ---------------------------------------------------------------------------------
 (2) _OSCILLATOR_Initialize                                0     0      0       0
 ---------------------------------------------------------------------------------
 (2) _EXT_INT_Initialize                                   0     0      0      98
            _INT_SetInterruptHandler
 ---------------------------------------------------------------------------------
 (3) _INT_SetInterruptHandler                              2     0      2      98
                                              0 COMMON     2     0      2
 ---------------------------------------------------------------------------------
 Estimated maximum stack depth 3
 ---------------------------------------------------------------------------------
 (Depth) Function   	        Calls       Base Space   Used Autos Params    Refs
 ---------------------------------------------------------------------------------
 (4) _INTERRUPT_InterruptManager                           0     0      0       0
                            _INT_ISR
                           _TMR2_ISR
 ---------------------------------------------------------------------------------
 (5) _TMR2_ISR                                             0     0      0       0
                      _TMR2_CallBack
 ---------------------------------------------------------------------------------
 (6) _TMR2_CallBack                                        0     0      0       0
                   Absolute function *
       _TMR2_DefaultInterruptHandler *
                     _TMR2_StopTimer
 ---------------------------------------------------------------------------------
 (7) _TMR2_StopTimer                                       0     0      0       0
 ---------------------------------------------------------------------------------
 (7) _TMR2_DefaultInterruptHandler                         0     0      0       0
 ---------------------------------------------------------------------------------
 (5) _INT_ISR                                              0     0      0       0
                       _INT_CallBack
 ---------------------------------------------------------------------------------
 (6) _INT_CallBack                                         0     0      0       0
                   Absolute function *
        _INT_DefaultInterruptHandler *
                    _TMR2_StartTimer
 ---------------------------------------------------------------------------------
 (7) _TMR2_StartTimer                                      0     0      0       0
 ---------------------------------------------------------------------------------
 (7) _INT_DefaultInterruptHandler                          0     0      0       0
 ---------------------------------------------------------------------------------
 (7) Absolute function(Fake)                               0     0      0       0
 ---------------------------------------------------------------------------------
 Estimated maximum stack depth 7
 ---------------------------------------------------------------------------------

 Call Graph Graphs:

 _main (ROOT)
   _SYSTEM_Initialize
     _EXT_INT_Initialize
       _INT_SetInterruptHandler
     _OSCILLATOR_Initialize
     _PIN_MANAGER_Initialize
     _TMR2_Initialize
       _TMR2_SetInterruptHandler
     _WDT_Initialize
   _delay_ms

 _INTERRUPT_InterruptManager (ROOT)
   _INT_ISR
     _INT_CallBack
       Absolute function(Fake) *
       _INT_DefaultInterruptHandler *
       _TMR2_StartTimer *
   _TMR2_ISR
     _TMR2_CallBack
       Absolute function(Fake) *
       _TMR2_DefaultInterruptHandler *
       _TMR2_StopTimer *

 Address spaces:
Name               Size   Autos  Total    Cost      Usage
BIGRAM             1F0      0       0       0        0.0%
EEDATA             100      0       0       0        0.0%
NULL                 0      0       0       0        0.0%
CODE                 0      0       0       0        0.0%
BITCOMMON            E      0       0       1        0.0%
BITSFR0              0      0       0       1        0.0%
SFR0                 0      0       0       1        0.0%
COMMON               E      5       D       2       92.9%
BITSFR1              0      0       0       2        0.0%
SFR1                 0      0       0       2        0.0%
BITSFR2              0      0       0       3        0.0%
SFR2                 0      0       0       3        0.0%
STACK                0      0       0       3        0.0%
BITSFR3              0      0       0       4        0.0%
SFR3                 0      0       0       4        0.0%
ABS                  0      0      13       4        0.0%
BITBANK0            50      0       0       5        0.0%
BITSFR4              0      0       0       5        0.0%
SFR4                 0      0       0       5        0.0%
BANK0               50      0       6       6        7.5%
BITSFR5              0      0       0       6        0.0%
SFR5                 0      0       0       6        0.0%
BITBANK1            50      0       0       7        0.0%
BITSFR6              0      0       0       7        0.0%
SFR6                 0      0       0       7        0.0%
BANK1               50      0       0       8        0.0%
BITSFR7              0      0       0       8        0.0%
SFR7                 0      0       0       8        0.0%
BITBANK2            50      0       0       9        0.0%
BITSFR8              0      0       0       9        0.0%
SFR8                 0      0       0       9        0.0%
BANK2               50      0       0      10        0.0%
BITSFR9              0      0       0      10        0.0%
SFR9                 0      0       0      10        0.0%
BITBANK3            50      0       0      11        0.0%
BITSFR10             0      0       0      11        0.0%
SFR10                0      0       0      11        0.0%
BANK3               50      0       0      12        0.0%
BITSFR11             0      0       0      12        0.0%
SFR11                0      0       0      12        0.0%
BITBANK4            50      0       0      13        0.0%
BITSFR12             0      0       0      13        0.0%
SFR12                0      0       0      13        0.0%
BANK4               50      0       0      14        0.0%
BITSFR13             0      0       0      14        0.0%
SFR13                0      0       0      14        0.0%
BITBANK5            50      0       0      15        0.0%
BITSFR14             0      0       0      15        0.0%
SFR14                0      0       0      15        0.0%
BANK5               50      0       0      16        0.0%
BITSFR15             0      0       0      16        0.0%
SFR15                0      0       0      16        0.0%
BITBANK6            10      0       0      17        0.0%
BITSFR16             0      0       0      17        0.0%
SFR16                0      0       0      17        0.0%
BANK6               10      0       0      18        0.0%
BITSFR17             0      0       0      18        0.0%
SFR17                0      0       0      18        0.0%
BITSFR18             0      0       0      19        0.0%
SFR18                0      0       0      19        0.0%
DATA                 0      0      13      19        0.0%
BITSFR19             0      0       0      20        0.0%
SFR19                0      0       0      20        0.0%
BITSFR20             0      0       0      21        0.0%
SFR20                0      0       0      21        0.0%
BITSFR21             0      0       0      22        0.0%
SFR21                0      0       0      22        0.0%
BITSFR22             0      0       0      23        0.0%
SFR22                0      0       0      23        0.0%
BITSFR23             0      0       0      24        0.0%
SFR23                0      0       0      24        0.0%
BITSFR24             0      0       0      25        0.0%
SFR24                0      0       0      25        0.0%
BITSFR25             0      0       0      26        0.0%
SFR25                0      0       0      26        0.0%
BITSFR26             0      0       0      27        0.0%
SFR26                0      0       0      27        0.0%
BITSFR27             0      0       0      28        0.0%
SFR27                0      0       0      28        0.0%
BITSFR28             0      0       0      29        0.0%
SFR28                0      0       0      29        0.0%
BITSFR29             0      0       0      30        0.0%
SFR29                0      0       0      30        0.0%
BITSFR30             0      0       0      31        0.0%
SFR30                0      0       0      31        0.0%
BITSFR31             0      0       0      32        0.0%
SFR31                0      0       0      32        0.0%


Microchip Technology PIC Macro Assembler V2.10 build 88905656 
Symbol Table                                                                                   Mon Aug 17 14:41:31 2020

        __end_of_TMR2_SetInterruptHandler 0112                               __CFG_CP$OFF 0000  
                                      l21 00E8                                        l24 010B  
                                      l27 0126                                        l66 00AF  
                                      l99 0117                                       l105 0104  
                                     l204 0111                                       l244 0086  
                                     l175 00D8                                       l247 0094  
                                     l871 0105                                       l863 0095  
                                     l873 0108                                       l865 009E  
                                     l875 0109                                       l867 00A0  
                                     l869 00AB                                       l877 0123  
                                     l983 0112                                       l991 00CA  
                                     l985 010C                                       l993 00CB  
                                     l995 00CC                                       l997 00CE  
                                     l989 00C7                                       l999 00D5  
                                     u190 0094                                       _PR2 001B  
                                     u191 0093                                       u257 007D  
                            __CFG_CPD$OFF 0000                                       u195 0090  
                         _TMR2_Initialize 00C7                              __CFG_BORV$LO 0000  
                                     wreg 0009                              __CFG_LVP$OFF 0000  
                                    l1001 00F9                                      l1003 00FC  
                                    l1005 0103                                      l1051 007A  
                                    l1039 00D9                                      l1071 00B6  
                                    l1049 0077                                      l1081 00BD  
                                    l1073 00B7                                      l1065 00B0  
                                    l1075 00B8                                      l1067 00B3  
                                    l1077 00B9                                      l1069 00B5  
                                    l1079 00BA                                      _LATA 010C  
                                    _LATB 010D                           __end_of_INT_ISR 0123  
                                    _LATC 010E                                      _LATD 010F  
                                    _LATE 0110                                      i1l92 0122  
                                    i1l96 00F8                                      _TMR2 001A  
                                    _WPUB 020D                                      _WPUE 0210  
                            __CFG_WRT$OFF 0000                                      _cnt1 0074  
                                    _cnt2 0070                                      _ctr1 0072  
                                    _ctr2 0024                                      _main 00B0  
                                    btemp 007E       __end_of_INT_DefaultInterruptHandler 012F  
             _INT_DefaultInterruptHandler 012E                                      start 0026  
                           __CFG_IESO$OFF 0000           __end_of_INT_SetInterruptHandler 0118  
                           __CFG_MCLRE$ON 0000            __size_of_OSCILLATOR_Initialize 0007  
           __end_of_OSCILLATOR_Initialize 010C                                     ?_main 0078  
                           __CFG_WDTE$OFF 0000                                     _T2CON 001C  
                                   _LATA3 0863                                     _LATD0 0878  
                                   _LATC5 0875                                     _LATC6 0876  
                                   i1l102 012E                                     i1l201 0076  
                                   i1l130 0012                                     i1l207 012D  
                                   i1l135 0024                                     i1l136 0024  
                                   i1l181 0129                                     i1l193 011D  
                                   i1l178 012C                                     i1l981 012A  
                                   i1l987 0127                                     u20_20 000A  
                                   u20_21 0009                                     u13_20 00F3  
                                   u21_20 000E                                     u13_21 00F2  
                                   u21_21 000D                                     u14_20 0046  
                                   u22_20 0016                                     u14_21 0045  
                                   u22_21 0015                                     u15_20 0050  
                                   u23_20 001B                                     u15_21 004F  
                                   u23_21 001A                                     u16_20 005A  
                                   u24_20 0020                                     u16_21 0059  
                                   u24_21 001F                                     u17_20 0063  
                                   u17_21 0062                                     u18_20 0071  
                                   u18_21 0070                                     _TRISA 008C  
                                   _TRISB 008D                                     _TRISC 008E  
                                   _TRISD 008F                                     _TRISE 0090  
                          __CFG_FCMEN$OFF 0000                          __end_of_TMR2_ISR 011E  
                          _WDT_Initialize 0123                            __CFG_BOREN$OFF 0000  
                                   pclath 000A                                     status 0003  
                                   wtemp0 007E                           _TMR2_StartTimer 012A  
                         __initialization 0028                              __end_of_main 00C7  
                 __end_of_TMR2_Initialize 00D9               ?_INTERRUPT_InterruptManager 0078  
                _TMR2_SetInterruptHandler 010C                                    ??_main 007D  
                          __CFG_PLLEN$OFF 0000                    __end_of_WDT_Initialize 0127  
                               ??_INT_ISR 0078                                    _APFCON 011D  
                                  _ANSELA 018C                                    _ANSELB 018D  
                                  _ANSELD 018F                                    _ANSELE 0190  
                                  _BORCON 0116                                    i1l1011 00F3  
                                  i1l1021 0050                                    i1l1013 0037  
                                  i1l1007 00E9                                    i1l1031 0065  
                                  i1l1023 0053                                    i1l1015 003F  
                                  i1l1009 00EC                                    i1l1041 011E  
                                  i1l1033 0068                                    i1l1025 005A  
                                  i1l1017 0046                                    i1l1043 011F  
                                  i1l1035 006A                                    i1l1027 005C  
                                  i1l1019 0049                                    i1l1037 0071  
                                  i1l1029 0063                                    i1l1045 0118  
                                  i1l1061 001B                                    i1l1053 0006  
                                  i1l1047 011A                                    i1l1063 0020  
                                  i1l1055 000A                                    i1l1057 000E  
                                  i1l1059 0016                                    _OSCCON 0099  
                                  _WDTCON 0097                          __end_of_delay_ms 0095  
                          __CFG_PWRTE$OFF 0000                            __CFG_STVREN$ON 0000  
                           ?_INT_CallBack 0078                           ?_WDT_Initialize 0078  
        __size_of_INT_SetInterruptHandler 0006                   __end_of_TMR2_StartTimer 012D  
TMR2_SetInterruptHandler@InterruptHandler 0078   INT_SetInterruptHandler@InterruptHandler 0078  
                       _SYSTEM_Initialize 00D9                   __end_of__initialization 0033  
                   __end_of_TMR2_CallBack 0077                        ?_SYSTEM_Initialize 0078  
                          __pcstackCOMMON 0078                       ??_SYSTEM_Initialize 007A  
                               ?_TMR2_ISR 0078                          ?_TMR2_Initialize 0078  
                          ??_INT_CallBack 0078               __size_of_EXT_INT_Initialize 000C  
                          _OPTION_REGbits 0095                 __end_of_SYSTEM_Initialize 00E9  
                              __pbssBANK0 0024                           __CFG_VCAPEN$OFF 0000  
                              __pmaintext 00B0                                ??_TMR2_ISR 0078  
                              __pintentry 0004                                   _INT_ISR 011E  
                               ?_delay_ms 0078                                   _OSCTUNE 0098  
                 __size_of_TMR2_StopTimer 0003                          ?_TMR2_StartTimer 0078  
              ??_TMR2_SetInterruptHandler 007A                                   __ptext1 0077  
                                 __ptext2 00D9                                   __ptext3 0123  
                                 __ptext4 00C7                                   __ptext5 010C  
                                 __ptext6 0095                                   __ptext7 0105  
                                 __ptext8 00F9                                   __ptext9 0112  
                   _OSCILLATOR_Initialize 0105                                 _T2CONbits 001C  
                                 _extintf 0076                  ??_PIN_MANAGER_Initialize 0078  
                 _INT_SetInterruptHandler 0112                                ??_delay_ms 007A  
              __size_of_SYSTEM_Initialize 0010                      end_of_initialization 0033  
                    __end_of_INT_CallBack 00F9                          ??_WDT_Initialize 0078  
                        __CFG_FOSC$INTOSC 0000      __end_of_TMR2_DefaultInterruptHandler 012E  
   __size_of_TMR2_DefaultInterruptHandler 0001              _TMR2_DefaultInterruptHandler 012D  
                       __size_of_TMR2_ISR 0006                    ?_OSCILLATOR_Initialize 0078  
               ??_INT_SetInterruptHandler 007A                       start_initialization 0028  
         __size_of_PIN_MANAGER_Initialize 001B                            _TMR2_StopTimer 0127  
            ?_INT_DefaultInterruptHandler 0078                __end_of_EXT_INT_Initialize 0105  
           ?_TMR2_DefaultInterruptHandler 0078                    __size_of_TMR2_CallBack 0040  
                  __end_of_TMR2_StopTimer 012A                               __pbssCOMMON 0070  
                               ___latbits 0002                                  ?_INT_ISR 0078  
                __size_of_TMR2_Initialize 0012                     __size_of_INT_CallBack 0010  
                       __size_of_delay_ms 001E                                 __pnvBANK0 0020  
                  _PIN_MANAGER_Initialize 0095             ??_INT_DefaultInterruptHandler 0078  
            ??_INTERRUPT_InterruptManager 0078                              _INT_CallBack 00E9  
                         ?_TMR2_StopTimer 0078                                 delay_ms@d 0078  
                               delay_ms@i 007B                             _TMR2_CallBack 0037  
                                _PIE1bits 0091                  __size_of_TMR2_StartTimer 0003  
     __size_of_INTERRUPT_InterruptManager 0022                                  _PIR1bits 0011  
                                _TMR2_ISR 0118      __size_of_INT_DefaultInterruptHandler 0001  
          ??_TMR2_DefaultInterruptHandler 0078         __size_of_TMR2_SetInterruptHandler 0006  
               ?_TMR2_SetInterruptHandler 0078                          __size_of_INT_ISR 0005  
                       ??_TMR2_Initialize 007A                            ?_TMR2_CallBack 0078  
                 ??_OSCILLATOR_Initialize 0078                                  _delay_ms 0077  
                                __ptext11 0118                                  __ptext12 0037  
                                __ptext13 0127                                  __ptext14 012D  
                                __ptext15 011E                                  __ptext16 00E9  
                                __ptext17 012A                                  __ptext18 012E  
                           __size_of_main 0017                                  int$flags 007E  
                       ??_TMR2_StartTimer 0078        __end_of_INTERRUPT_InterruptManager 0026  
              _INTERRUPT_InterruptManager 0004                                _INTCONbits 000B  
                    _INT_InterruptHandler 0022                        _EXT_INT_Initialize 00F9  
                 __size_of_WDT_Initialize 0004                                  intlevel1 0000  
                         ??_TMR2_CallBack 0078                   ?_PIN_MANAGER_Initialize 0078  
                       __CFG_CLKOUTEN$OFF 0000                       ?_EXT_INT_Initialize 0078  
                ?_INT_SetInterruptHandler 0078                          ??_TMR2_StopTimer 0078  
                    ??_EXT_INT_Initialize 007A            __end_of_PIN_MANAGER_Initialize 00B0  
                   _TMR2_InterruptHandler 0020  
